Archive member included because of file (symbol)

/Users/Danny/libmaple/arm/bin/../lib/gcc/arm-none-eabi/4.4.1/../../../../arm-none-eabi/lib/thumb2/libstdc++.a(atexit_arm.o)
                              build//Users/Danny/Maple_Workbench/SD/main.o (__aeabi_atexit)
/Users/Danny/libmaple/arm/bin/../lib/gcc/arm-none-eabi/4.4.1/thumb2/libgcc.a(_arm_addsubdf3.o)
                              build//Users/Danny/libmaple/wirish/Print.o (__aeabi_dsub)
/Users/Danny/libmaple/arm/bin/../lib/gcc/arm-none-eabi/4.4.1/thumb2/libgcc.a(_arm_muldivdf3.o)
                              build//Users/Danny/libmaple/wirish/Print.o (__aeabi_dmul)
/Users/Danny/libmaple/arm/bin/../lib/gcc/arm-none-eabi/4.4.1/thumb2/libgcc.a(_arm_cmpdf2.o)
                              build//Users/Danny/libmaple/wirish/Print.o (__aeabi_dcmplt)
/Users/Danny/libmaple/arm/bin/../lib/gcc/arm-none-eabi/4.4.1/thumb2/libgcc.a(_arm_fixdfsi.o)
                              build//Users/Danny/libmaple/wirish/Print.o (__aeabi_d2iz)
/Users/Danny/libmaple/arm/bin/../lib/gcc/arm-none-eabi/4.4.1/thumb2/libgcc.a(_aeabi_uldivmod.o)
                              build//Users/Danny/libmaple/wirish/Print.o (__aeabi_uldivmod)
/Users/Danny/libmaple/arm/bin/../lib/gcc/arm-none-eabi/4.4.1/thumb2/libgcc.a(_fixdfdi.o)
                              build//Users/Danny/libmaple/wirish/Print.o (__aeabi_d2lz)
/Users/Danny/libmaple/arm/bin/../lib/gcc/arm-none-eabi/4.4.1/thumb2/libgcc.a(_fixunsdfdi.o)
                              /Users/Danny/libmaple/arm/bin/../lib/gcc/arm-none-eabi/4.4.1/thumb2/libgcc.a(_fixdfdi.o) (__aeabi_d2ulz)
/Users/Danny/libmaple/arm/bin/../lib/gcc/arm-none-eabi/4.4.1/thumb2/libgcc.a(bpabi.o)
                              /Users/Danny/libmaple/arm/bin/../lib/gcc/arm-none-eabi/4.4.1/thumb2/libgcc.a(_aeabi_uldivmod.o) (__gnu_uldivmod_helper)
/Users/Danny/libmaple/arm/bin/../lib/gcc/arm-none-eabi/4.4.1/thumb2/libgcc.a(_dvmd_tls.o)
                              /Users/Danny/libmaple/arm/bin/../lib/gcc/arm-none-eabi/4.4.1/thumb2/libgcc.a(_aeabi_uldivmod.o) (__aeabi_ldiv0)
/Users/Danny/libmaple/arm/bin/../lib/gcc/arm-none-eabi/4.4.1/thumb2/libgcc.a(_arm_fixunsdfsi.o)
                              /Users/Danny/libmaple/arm/bin/../lib/gcc/arm-none-eabi/4.4.1/thumb2/libgcc.a(_fixunsdfdi.o) (__aeabi_d2uiz)
/Users/Danny/libmaple/arm/bin/../lib/gcc/arm-none-eabi/4.4.1/thumb2/libgcc.a(_divdi3.o)
                              /Users/Danny/libmaple/arm/bin/../lib/gcc/arm-none-eabi/4.4.1/thumb2/libgcc.a(bpabi.o) (__divdi3)
/Users/Danny/libmaple/arm/bin/../lib/gcc/arm-none-eabi/4.4.1/thumb2/libgcc.a(_udivdi3.o)
                              /Users/Danny/libmaple/arm/bin/../lib/gcc/arm-none-eabi/4.4.1/thumb2/libgcc.a(bpabi.o) (__udivdi3)
/Users/Danny/libmaple/arm/bin/../lib/gcc/arm-none-eabi/4.4.1/thumb2/libgcc.a(_udivsi3.o)
                              /Users/Danny/libmaple/arm/bin/../lib/gcc/arm-none-eabi/4.4.1/thumb2/libgcc.a(_divdi3.o) (__aeabi_uidiv)
/Users/Danny/libmaple/arm/bin/../lib/gcc/arm-none-eabi/4.4.1/../../../../arm-none-eabi/lib/thumb2/libc.a(lib_a-cxa_atexit.o)
                              /Users/Danny/libmaple/arm/bin/../lib/gcc/arm-none-eabi/4.4.1/../../../../arm-none-eabi/lib/thumb2/libstdc++.a(atexit_arm.o) (__cxa_atexit)
/Users/Danny/libmaple/arm/bin/../lib/gcc/arm-none-eabi/4.4.1/../../../../arm-none-eabi/lib/thumb2/libc.a(lib_a-errno.o)
                              build//Users/Danny/libmaple/wirish/syscalls.o (__errno)
/Users/Danny/libmaple/arm/bin/../lib/gcc/arm-none-eabi/4.4.1/../../../../arm-none-eabi/lib/thumb2/libc.a(lib_a-impure.o)
                              /Users/Danny/libmaple/arm/bin/../lib/gcc/arm-none-eabi/4.4.1/../../../../arm-none-eabi/lib/thumb2/libc.a(lib_a-errno.o) (_impure_ptr)
/Users/Danny/libmaple/arm/bin/../lib/gcc/arm-none-eabi/4.4.1/../../../../arm-none-eabi/lib/thumb2/libc.a(lib_a-init.o)
                              build//Users/Danny/libmaple/wirish/start_c.o (__libc_init_array)
/Users/Danny/libmaple/arm/bin/../lib/gcc/arm-none-eabi/4.4.1/../../../../arm-none-eabi/lib/thumb2/libc.a(lib_a-malloc.o)
                              build//Users/Danny/Maple_Workbench/SD/libFAT/FAT.o (malloc)
/Users/Danny/libmaple/arm/bin/../lib/gcc/arm-none-eabi/4.4.1/../../../../arm-none-eabi/lib/thumb2/libc.a(lib_a-mallocr.o)
                              /Users/Danny/libmaple/arm/bin/../lib/gcc/arm-none-eabi/4.4.1/../../../../arm-none-eabi/lib/thumb2/libc.a(lib_a-malloc.o) (_malloc_r)
/Users/Danny/libmaple/arm/bin/../lib/gcc/arm-none-eabi/4.4.1/../../../../arm-none-eabi/lib/thumb2/libc.a(lib_a-memcmp.o)
                              build//Users/Danny/libmaple/libraries/FreeRTOS/utility/tasks.o (memcmp)
/Users/Danny/libmaple/arm/bin/../lib/gcc/arm-none-eabi/4.4.1/../../../../arm-none-eabi/lib/thumb2/libc.a(lib_a-memcpy.o)
                              build//Users/Danny/libmaple/libraries/FreeRTOS/utility/queue.o (memcpy)
/Users/Danny/libmaple/arm/bin/../lib/gcc/arm-none-eabi/4.4.1/../../../../arm-none-eabi/lib/thumb2/libc.a(lib_a-memset.o)
                              build//Users/Danny/libmaple/libraries/FreeRTOS/utility/tasks.o (memset)
/Users/Danny/libmaple/arm/bin/../lib/gcc/arm-none-eabi/4.4.1/../../../../arm-none-eabi/lib/thumb2/libc.a(lib_a-mlock.o)
                              /Users/Danny/libmaple/arm/bin/../lib/gcc/arm-none-eabi/4.4.1/../../../../arm-none-eabi/lib/thumb2/libc.a(lib_a-mallocr.o) (__malloc_lock)
/Users/Danny/libmaple/arm/bin/../lib/gcc/arm-none-eabi/4.4.1/../../../../arm-none-eabi/lib/thumb2/libc.a(lib_a-rand.o)
                              build//Users/Danny/libmaple/wirish/wirish_math.o (rand)
/Users/Danny/libmaple/arm/bin/../lib/gcc/arm-none-eabi/4.4.1/../../../../arm-none-eabi/lib/thumb2/libc.a(lib_a-sbrkr.o)
                              /Users/Danny/libmaple/arm/bin/../lib/gcc/arm-none-eabi/4.4.1/../../../../arm-none-eabi/lib/thumb2/libc.a(lib_a-mallocr.o) (_sbrk_r)
/Users/Danny/libmaple/arm/bin/../lib/gcc/arm-none-eabi/4.4.1/../../../../arm-none-eabi/lib/thumb2/libc.a(lib_a-sprintf.o)
                              build//Users/Danny/libmaple/libraries/FreeRTOS/utility/tasks.o (sprintf)
/Users/Danny/libmaple/arm/bin/../lib/gcc/arm-none-eabi/4.4.1/../../../../arm-none-eabi/lib/thumb2/libc.a(lib_a-strcat.o)
                              build//Users/Danny/libmaple/libraries/FreeRTOS/utility/tasks.o (strcat)
/Users/Danny/libmaple/arm/bin/../lib/gcc/arm-none-eabi/4.4.1/../../../../arm-none-eabi/lib/thumb2/libc.a(lib_a-strlen.o)
                              build//Users/Danny/libmaple/wirish/usb_serial.o (strlen)
/Users/Danny/libmaple/arm/bin/../lib/gcc/arm-none-eabi/4.4.1/../../../../arm-none-eabi/lib/thumb2/libc.a(lib_a-strncpy.o)
                              build//Users/Danny/libmaple/libraries/FreeRTOS/utility/tasks.o (strncpy)
/Users/Danny/libmaple/arm/bin/../lib/gcc/arm-none-eabi/4.4.1/../../../../arm-none-eabi/lib/thumb2/libc.a(lib_a-svfprintf.o)
                              /Users/Danny/libmaple/arm/bin/../lib/gcc/arm-none-eabi/4.4.1/../../../../arm-none-eabi/lib/thumb2/libc.a(lib_a-sprintf.o) (_svfprintf_r)
/Users/Danny/libmaple/arm/bin/../lib/gcc/arm-none-eabi/4.4.1/../../../../arm-none-eabi/lib/thumb2/libc.a(lib_a-__atexit.o)
                              /Users/Danny/libmaple/arm/bin/../lib/gcc/arm-none-eabi/4.4.1/../../../../arm-none-eabi/lib/thumb2/libc.a(lib_a-cxa_atexit.o) (__register_exitproc)
/Users/Danny/libmaple/arm/bin/../lib/gcc/arm-none-eabi/4.4.1/../../../../arm-none-eabi/lib/thumb2/libc.a(lib_a-dtoa.o)
                              /Users/Danny/libmaple/arm/bin/../lib/gcc/arm-none-eabi/4.4.1/../../../../arm-none-eabi/lib/thumb2/libc.a(lib_a-svfprintf.o) (_dtoa_r)
/Users/Danny/libmaple/arm/bin/../lib/gcc/arm-none-eabi/4.4.1/../../../../arm-none-eabi/lib/thumb2/libc.a(lib_a-freer.o)
                              /Users/Danny/libmaple/arm/bin/../lib/gcc/arm-none-eabi/4.4.1/../../../../arm-none-eabi/lib/thumb2/libc.a(lib_a-malloc.o) (_free_r)
/Users/Danny/libmaple/arm/bin/../lib/gcc/arm-none-eabi/4.4.1/../../../../arm-none-eabi/lib/thumb2/libc.a(lib_a-locale.o)
                              /Users/Danny/libmaple/arm/bin/../lib/gcc/arm-none-eabi/4.4.1/../../../../arm-none-eabi/lib/thumb2/libc.a(lib_a-svfprintf.o) (_localeconv_r)
/Users/Danny/libmaple/arm/bin/../lib/gcc/arm-none-eabi/4.4.1/../../../../arm-none-eabi/lib/thumb2/libc.a(lib_a-memchr.o)
                              /Users/Danny/libmaple/arm/bin/../lib/gcc/arm-none-eabi/4.4.1/../../../../arm-none-eabi/lib/thumb2/libc.a(lib_a-svfprintf.o) (memchr)
/Users/Danny/libmaple/arm/bin/../lib/gcc/arm-none-eabi/4.4.1/../../../../arm-none-eabi/lib/thumb2/libc.a(lib_a-memmove.o)
                              /Users/Danny/libmaple/arm/bin/../lib/gcc/arm-none-eabi/4.4.1/../../../../arm-none-eabi/lib/thumb2/libc.a(lib_a-svfprintf.o) (memmove)
/Users/Danny/libmaple/arm/bin/../lib/gcc/arm-none-eabi/4.4.1/../../../../arm-none-eabi/lib/thumb2/libc.a(lib_a-mprec.o)
                              /Users/Danny/libmaple/arm/bin/../lib/gcc/arm-none-eabi/4.4.1/../../../../arm-none-eabi/lib/thumb2/libc.a(lib_a-dtoa.o) (__hi0bits)
/Users/Danny/libmaple/arm/bin/../lib/gcc/arm-none-eabi/4.4.1/../../../../arm-none-eabi/lib/thumb2/libc.a(lib_a-reallocr.o)
                              /Users/Danny/libmaple/arm/bin/../lib/gcc/arm-none-eabi/4.4.1/../../../../arm-none-eabi/lib/thumb2/libc.a(lib_a-svfprintf.o) (_realloc_r)
/Users/Danny/libmaple/arm/bin/../lib/gcc/arm-none-eabi/4.4.1/../../../../arm-none-eabi/lib/thumb2/libc.a(lib_a-reent.o)
                              /Users/Danny/libmaple/arm/bin/../lib/gcc/arm-none-eabi/4.4.1/../../../../arm-none-eabi/lib/thumb2/libc.a(lib_a-sbrkr.o) (errno)
/Users/Danny/libmaple/arm/bin/../lib/gcc/arm-none-eabi/4.4.1/../../../../arm-none-eabi/lib/thumb2/libc.a(lib_a-s_isinfd.o)
                              /Users/Danny/libmaple/arm/bin/../lib/gcc/arm-none-eabi/4.4.1/../../../../arm-none-eabi/lib/thumb2/libc.a(lib_a-svfprintf.o) (__isinfd)
/Users/Danny/libmaple/arm/bin/../lib/gcc/arm-none-eabi/4.4.1/../../../../arm-none-eabi/lib/thumb2/libc.a(lib_a-s_isnand.o)
                              /Users/Danny/libmaple/arm/bin/../lib/gcc/arm-none-eabi/4.4.1/../../../../arm-none-eabi/lib/thumb2/libc.a(lib_a-svfprintf.o) (__isnand)
/Users/Danny/libmaple/arm/bin/../lib/gcc/arm-none-eabi/4.4.1/../../../../arm-none-eabi/lib/thumb2/libc.a(lib_a-strcmp.o)
                              /Users/Danny/libmaple/arm/bin/../lib/gcc/arm-none-eabi/4.4.1/../../../../arm-none-eabi/lib/thumb2/libc.a(lib_a-locale.o) (strcmp)
/Users/Danny/libmaple/arm/bin/../lib/gcc/arm-none-eabi/4.4.1/../../../../arm-none-eabi/lib/thumb2/libc.a(lib_a-callocr.o)
                              /Users/Danny/libmaple/arm/bin/../lib/gcc/arm-none-eabi/4.4.1/../../../../arm-none-eabi/lib/thumb2/libc.a(lib_a-mprec.o) (_calloc_r)
/Users/Danny/libmaple/arm/bin/../lib/gcc/arm-none-eabi/4.4.1/thumb2/libgcc.a(_divsi3.o)
                              /Users/Danny/libmaple/arm/bin/../lib/gcc/arm-none-eabi/4.4.1/../../../../arm-none-eabi/lib/thumb2/libc.a(lib_a-svfprintf.o) (__aeabi_idiv)

Allocating common symbols
Common symbol       size              file

SaveRState          0x2               build//Users/Danny/libmaple/libmaple/usb/stm32f1/usb.o
SaveState           0x2               build//Users/Danny/libmaple/libmaple/usb/usb_lib/usb_init.o
errno               0x4               /Users/Danny/libmaple/arm/bin/../lib/gcc/arm-none-eabi/4.4.1/../../../../arm-none-eabi/lib/thumb2/libc.a(lib_a-reent.o)
pProperty           0x4               build//Users/Danny/libmaple/libmaple/usb/usb_lib/usb_init.o
EPindex             0x1               build//Users/Danny/libmaple/libmaple/usb/usb_lib/usb_init.o
SaveTState          0x2               build//Users/Danny/libmaple/libmaple/usb/stm32f1/usb.o
systick_uptime_millis
                    0x4               build//Users/Danny/libmaple/libmaple/systick.o
Device_Info         0x1c              build//Users/Danny/libmaple/libmaple/usb/usb_lib/usb_init.o
pUser_Standard_Requests
                    0x4               build//Users/Danny/libmaple/libmaple/usb/usb_lib/usb_init.o
StatusInfo          0x2               build//Users/Danny/libmaple/libmaple/usb/usb_lib/usb_core.o
pInformation        0x4               build//Users/Danny/libmaple/libmaple/usb/usb_lib/usb_init.o
ResumeS             0x2               build//Users/Danny/libmaple/libmaple/usb/stm32f1/usb.o
wInterrupt_Mask     0x2               build//Users/Danny/libmaple/libmaple/usb/usb_lib/usb_init.o

Discarded input sections

 .text          0x00000000        0x0 /Users/Danny/libmaple/arm/bin/../lib/gcc/arm-none-eabi/4.4.1/thumb2/crti.o
 .data          0x00000000        0x0 /Users/Danny/libmaple/arm/bin/../lib/gcc/arm-none-eabi/4.4.1/thumb2/crti.o
 .bss           0x00000000        0x0 /Users/Danny/libmaple/arm/bin/../lib/gcc/arm-none-eabi/4.4.1/thumb2/crti.o
 .text          0x00000000        0x0 build//Users/Danny/libmaple/libmaple/adc.o
 .data          0x00000000        0x0 build//Users/Danny/libmaple/libmaple/adc.o
 .bss           0x00000000        0x0 build//Users/Danny/libmaple/libmaple/adc.o
 .text.adc_read
                0x00000000       0x22 build//Users/Danny/libmaple/libmaple/adc.o
 .text          0x00000000        0x0 build//Users/Danny/libmaple/libmaple/dac.o
 .data          0x00000000        0x0 build//Users/Danny/libmaple/libmaple/dac.o
 .bss           0x00000000        0x0 build//Users/Danny/libmaple/libmaple/dac.o
 .text.dac_write_channel
                0x00000000       0x1e build//Users/Danny/libmaple/libmaple/dac.o
 .text.dac_disable_channel
                0x00000000       0x22 build//Users/Danny/libmaple/libmaple/dac.o
 .text.dac_enable_channel
                0x00000000       0x44 build//Users/Danny/libmaple/libmaple/dac.o
 .text.dac_init
                0x00000000       0x34 build//Users/Danny/libmaple/libmaple/dac.o
 .text          0x00000000        0x0 build//Users/Danny/libmaple/libmaple/dma.o
 .data          0x00000000        0x0 build//Users/Danny/libmaple/libmaple/dma.o
 .bss           0x00000000        0x0 build//Users/Danny/libmaple/libmaple/dma.o
 .text._dma_addr_type
                0x00000000       0x1c build//Users/Danny/libmaple/libmaple/dma.o
 .text.dma_init
                0x00000000        0x6 build//Users/Danny/libmaple/libmaple/dma.o
 .text          0x00000000        0x0 build//Users/Danny/libmaple/libmaple/exti.o
 .data          0x00000000        0x0 build//Users/Danny/libmaple/libmaple/exti.o
 .bss           0x00000000        0x0 build//Users/Danny/libmaple/libmaple/exti.o
 .text.exti_do_select
                0x00000000       0x1c build//Users/Danny/libmaple/libmaple/exti.o
 .text.bb_peri_set_bit
                0x00000000        0xe build//Users/Danny/libmaple/libmaple/exti.o
 .text.exti_detach_interrupt
                0x00000000       0x3c build//Users/Danny/libmaple/libmaple/exti.o
 .text.exti_attach_interrupt
                0x00000000       0x98 build//Users/Danny/libmaple/libmaple/exti.o
 .rodata.str1.1
                0x00000000       0x2e build//Users/Danny/libmaple/libmaple/exti.o
 .text          0x00000000        0x0 build//Users/Danny/libmaple/libmaple/flash.o
 .data          0x00000000        0x0 build//Users/Danny/libmaple/libmaple/flash.o
 .bss           0x00000000        0x0 build//Users/Danny/libmaple/libmaple/flash.o
 .text          0x00000000        0x0 build//Users/Danny/libmaple/libmaple/gpio.o
 .data          0x00000000        0x0 build//Users/Danny/libmaple/libmaple/gpio.o
 .bss           0x00000000        0x0 build//Users/Danny/libmaple/libmaple/gpio.o
 .text          0x00000000        0x0 build//Users/Danny/libmaple/libmaple/iwdg.o
 .data          0x00000000        0x0 build//Users/Danny/libmaple/libmaple/iwdg.o
 .bss           0x00000000        0x0 build//Users/Danny/libmaple/libmaple/iwdg.o
 .text.iwdg_feed
                0x00000000       0x10 build//Users/Danny/libmaple/libmaple/iwdg.o
 .text.iwdg_init
                0x00000000       0x1c build//Users/Danny/libmaple/libmaple/iwdg.o
 .text          0x00000000        0x0 build//Users/Danny/libmaple/libmaple/nvic.o
 .data          0x00000000        0x0 build//Users/Danny/libmaple/libmaple/nvic.o
 .bss           0x00000000        0x0 build//Users/Danny/libmaple/libmaple/nvic.o
 .text          0x00000000        0x0 build//Users/Danny/libmaple/libmaple/pwr.o
 .data          0x00000000        0x0 build//Users/Danny/libmaple/libmaple/pwr.o
 .bss           0x00000000        0x0 build//Users/Danny/libmaple/libmaple/pwr.o
 .text.pwr_init
                0x00000000       0x12 build//Users/Danny/libmaple/libmaple/pwr.o
 .text          0x00000000        0x0 build//Users/Danny/libmaple/libmaple/rcc.o
 .data          0x00000000        0x0 build//Users/Danny/libmaple/libmaple/rcc.o
 .bss           0x00000000        0x0 build//Users/Danny/libmaple/libmaple/rcc.o
 .text          0x00000000        0x0 build//Users/Danny/libmaple/libmaple/spi.o
 .data          0x00000000        0x0 build//Users/Danny/libmaple/libmaple/spi.o
 .bss           0x00000000        0x0 build//Users/Danny/libmaple/libmaple/spi.o
 .text.spi_tx_dma_enable
                0x00000000        0xc build//Users/Danny/libmaple/libmaple/spi.o
 .text.spi_tx_dma_disable
                0x00000000        0xc build//Users/Danny/libmaple/libmaple/spi.o
 .text.spi_rx_dma_enable
                0x00000000        0xc build//Users/Danny/libmaple/libmaple/spi.o
 .text.spi_rx_dma_disable
                0x00000000        0xc build//Users/Danny/libmaple/libmaple/spi.o
 .text.spi_slave_enable
                0x00000000        0x8 build//Users/Danny/libmaple/libmaple/spi.o
 .text          0x00000000        0x0 build//Users/Danny/libmaple/libmaple/systick.o
 .data          0x00000000        0x0 build//Users/Danny/libmaple/libmaple/systick.o
 .bss           0x00000000        0x0 build//Users/Danny/libmaple/libmaple/systick.o
 .text.systick_disable
                0x00000000        0xc build//Users/Danny/libmaple/libmaple/systick.o
 .text.systick_attach_callback
                0x00000000        0xc build//Users/Danny/libmaple/libmaple/systick.o
 .text          0x00000000        0x0 build//Users/Danny/libmaple/libmaple/timer.o
 .data          0x00000000        0x0 build//Users/Danny/libmaple/libmaple/timer.o
 .bss           0x00000000        0x0 build//Users/Danny/libmaple/libmaple/timer.o
 .text.nvic_irq_enable
                0x00000000       0x1c build//Users/Danny/libmaple/libmaple/timer.o
 .text.timer_oc_set_mode
                0x00000000       0x38 build//Users/Danny/libmaple/libmaple/timer.o
 .text.bb_perip
                0x00000000        0xc build//Users/Danny/libmaple/libmaple/timer.o
 .text.timer_attach_interrupt
                0x00000000       0xcc build//Users/Danny/libmaple/libmaple/timer.o
 .text.timer_disable_irq
                0x00000000       0x10 build//Users/Danny/libmaple/libmaple/timer.o
 .text.timer_detach_interrupt
                0x00000000       0x14 build//Users/Danny/libmaple/libmaple/timer.o
 .text.timer_cc_enable
                0x00000000       0x14 build//Users/Danny/libmaple/libmaple/timer.o
 .text.timer_set_mode
                0x00000000       0x90 build//Users/Danny/libmaple/libmaple/timer.o
 .text          0x00000000        0x0 build//Users/Danny/libmaple/libmaple/usart.o
 .data          0x00000000        0x0 build//Users/Danny/libmaple/libmaple/usart.o
 .bss           0x00000000        0x0 build//Users/Danny/libmaple/libmaple/usart.o
 .text.usart_enable
                0x00000000       0x10 build//Users/Danny/libmaple/libmaple/usart.o
 .text.usart_rx
                0x00000000       0x5a build//Users/Danny/libmaple/libmaple/usart.o
 .text          0x00000000        0x0 build//Users/Danny/libmaple/libmaple/usart_private.o
 .data          0x00000000        0x0 build//Users/Danny/libmaple/libmaple/usart_private.o
 .bss           0x00000000        0x0 build//Users/Danny/libmaple/libmaple/usart_private.o
 .text          0x00000000        0x0 build//Users/Danny/libmaple/libmaple/util.o
 .data          0x00000000        0x0 build//Users/Danny/libmaple/libmaple/util.o
 .bss           0x00000000        0x0 build//Users/Danny/libmaple/libmaple/util.o
 .text.abort    0x00000000       0x1c build//Users/Danny/libmaple/libmaple/util.o
 .text.__assert_func
                0x00000000        0x6 build//Users/Danny/libmaple/libmaple/util.o
 .text          0x00000000        0x0 build//Users/Danny/libmaple/libmaple/i2c.o
 .data          0x00000000        0x0 build//Users/Danny/libmaple/libmaple/i2c.o
 .bss           0x00000000        0x0 build//Users/Danny/libmaple/libmaple/i2c.o
 .text.nvic_irq_enable
                0x00000000       0x1c build//Users/Danny/libmaple/libmaple/i2c.o
 .text.scl_port
                0x00000000        0xa build//Users/Danny/libmaple/libmaple/i2c.o
 .text.sda_port
                0x00000000        0xa build//Users/Danny/libmaple/libmaple/i2c.o
 .text.gpio_write_bit
                0x00000000       0x18 build//Users/Danny/libmaple/libmaple/i2c.o
 .text.gpio_read_bit
                0x00000000        0xc build//Users/Danny/libmaple/libmaple/i2c.o
 .text.i2c_init
                0x00000000       0x18 build//Users/Danny/libmaple/libmaple/i2c.o
 .text.i2c_master_xfer
                0x00000000       0x78 build//Users/Danny/libmaple/libmaple/i2c.o
 .text.T.8      0x00000000        0xa build//Users/Danny/libmaple/libmaple/i2c.o
 .text.i2c_bus_reset
                0x00000000       0x9a build//Users/Danny/libmaple/libmaple/i2c.o
 .text.i2c_master_enable
                0x00000000       0xcc build//Users/Danny/libmaple/libmaple/i2c.o
 .data          0x00000000        0x0 build//Users/Danny/libmaple/libmaple/exc.o
 .bss           0x00000000        0x0 build//Users/Danny/libmaple/libmaple/exc.o
 .text          0x00000000        0x0 build//Users/Danny/libmaple/libmaple/usb/stm32f1/usb.o
 .data          0x00000000        0x0 build//Users/Danny/libmaple/libmaple/usb/stm32f1/usb.o
 .bss           0x00000000        0x0 build//Users/Danny/libmaple/libmaple/usb/stm32f1/usb.o
 .text          0x00000000        0x0 build//Users/Danny/libmaple/libmaple/usb/stm32f1/usb_reg_map.o
 .data          0x00000000        0x0 build//Users/Danny/libmaple/libmaple/usb/stm32f1/usb_reg_map.o
 .bss           0x00000000        0x0 build//Users/Danny/libmaple/libmaple/usb/stm32f1/usb_reg_map.o
 .text          0x00000000        0x0 build//Users/Danny/libmaple/libmaple/usb/stm32f1/usb_cdcacm.o
 .data          0x00000000        0x0 build//Users/Danny/libmaple/libmaple/usb/stm32f1/usb_cdcacm.o
 .bss           0x00000000        0x0 build//Users/Danny/libmaple/libmaple/usb/stm32f1/usb_cdcacm.o
 .text.usb_cdcacm_get_pending
                0x00000000        0xc build//Users/Danny/libmaple/libmaple/usb/stm32f1/usb_cdcacm.o
 .text.usb_cdcacm_get_rts
                0x00000000       0x10 build//Users/Danny/libmaple/libmaple/usb/stm32f1/usb_cdcacm.o
 .text.usb_cdcacm_disable
                0x00000000       0x14 build//Users/Danny/libmaple/libmaple/usb/stm32f1/usb_cdcacm.o
 .text.usb_cdcacm_putc
                0x00000000       0x16 build//Users/Danny/libmaple/libmaple/usb/stm32f1/usb_cdcacm.o
 .text          0x00000000        0x0 build//Users/Danny/libmaple/libmaple/usb/usb_lib/usb_core.o
 .data          0x00000000        0x0 build//Users/Danny/libmaple/libmaple/usb/usb_lib/usb_core.o
 .bss           0x00000000        0x0 build//Users/Danny/libmaple/libmaple/usb/usb_lib/usb_core.o
 .text          0x00000000        0x0 build//Users/Danny/libmaple/libmaple/usb/usb_lib/usb_init.o
 .data          0x00000000        0x0 build//Users/Danny/libmaple/libmaple/usb/usb_lib/usb_init.o
 .bss           0x00000000        0x0 build//Users/Danny/libmaple/libmaple/usb/usb_lib/usb_init.o
 .text.USB_Init
                0x00000000       0x38 build//Users/Danny/libmaple/libmaple/usb/usb_lib/usb_init.o
 .text          0x00000000        0x0 build//Users/Danny/libmaple/libmaple/usb/usb_lib/usb_mem.o
 .data          0x00000000        0x0 build//Users/Danny/libmaple/libmaple/usb/usb_lib/usb_mem.o
 .bss           0x00000000        0x0 build//Users/Danny/libmaple/libmaple/usb/usb_lib/usb_mem.o
 .text          0x00000000        0x0 build//Users/Danny/libmaple/libmaple/usb/usb_lib/usb_regs.o
 .data          0x00000000        0x0 build//Users/Danny/libmaple/libmaple/usb/usb_lib/usb_regs.o
 .bss           0x00000000        0x0 build//Users/Danny/libmaple/libmaple/usb/usb_lib/usb_regs.o
 .text.SetCNTR  0x00000000        0xc build//Users/Danny/libmaple/libmaple/usb/usb_lib/usb_regs.o
 .text.GetCNTR  0x00000000        0xc build//Users/Danny/libmaple/libmaple/usb/usb_lib/usb_regs.o
 .text.SetISTR  0x00000000        0xc build//Users/Danny/libmaple/libmaple/usb/usb_lib/usb_regs.o
 .text.GetISTR  0x00000000        0xc build//Users/Danny/libmaple/libmaple/usb/usb_lib/usb_regs.o
 .text.GetFNR   0x00000000        0xc build//Users/Danny/libmaple/libmaple/usb/usb_lib/usb_regs.o
 .text.SetDADDR
                0x00000000        0xc build//Users/Danny/libmaple/libmaple/usb/usb_lib/usb_regs.o
 .text.GetDADDR
                0x00000000        0xc build//Users/Danny/libmaple/libmaple/usb/usb_lib/usb_regs.o
 .text.SetBTABLE
                0x00000000       0x14 build//Users/Danny/libmaple/libmaple/usb/usb_lib/usb_regs.o
 .text.GetBTABLE
                0x00000000        0xc build//Users/Danny/libmaple/libmaple/usb/usb_lib/usb_regs.o
 .text.SetENDPOINT
                0x00000000        0xe build//Users/Danny/libmaple/libmaple/usb/usb_lib/usb_regs.o
 .text.GetENDPOINT
                0x00000000       0x10 build//Users/Danny/libmaple/libmaple/usb/usb_lib/usb_regs.o
 .text.SetEPType
                0x00000000       0x1a build//Users/Danny/libmaple/libmaple/usb/usb_lib/usb_regs.o
 .text.GetEPType
                0x00000000       0x12 build//Users/Danny/libmaple/libmaple/usb/usb_lib/usb_regs.o
 .text.SetEPRxStatus
                0x00000000       0x2c build//Users/Danny/libmaple/libmaple/usb/usb_lib/usb_regs.o
 .text.SetDouBleBuffEPStall
                0x00000000       0x36 build//Users/Danny/libmaple/libmaple/usb/usb_lib/usb_regs.o
 .text.GetEPTxStatus
                0x00000000       0x12 build//Users/Danny/libmaple/libmaple/usb/usb_lib/usb_regs.o
 .text.GetEPRxStatus
                0x00000000       0x12 build//Users/Danny/libmaple/libmaple/usb/usb_lib/usb_regs.o
 .text.SetEPTxValid
                0x00000000       0x1c build//Users/Danny/libmaple/libmaple/usb/usb_lib/usb_regs.o
 .text.SetEPRxValid
                0x00000000       0x1c build//Users/Danny/libmaple/libmaple/usb/usb_lib/usb_regs.o
 .text.SetEP_KIND
                0x00000000       0x1c build//Users/Danny/libmaple/libmaple/usb/usb_lib/usb_regs.o
 .text.ClearEP_KIND
                0x00000000       0x18 build//Users/Danny/libmaple/libmaple/usb/usb_lib/usb_regs.o
 .text.Clear_Status_Out
                0x00000000       0x18 build//Users/Danny/libmaple/libmaple/usb/usb_lib/usb_regs.o
 .text.Set_Status_Out
                0x00000000       0x1c build//Users/Danny/libmaple/libmaple/usb/usb_lib/usb_regs.o
 .text.SetEPDoubleBuff
                0x00000000       0x1c build//Users/Danny/libmaple/libmaple/usb/usb_lib/usb_regs.o
 .text.ClearEPDoubleBuff
                0x00000000       0x18 build//Users/Danny/libmaple/libmaple/usb/usb_lib/usb_regs.o
 .text.GetTxStallStatus
                0x00000000       0x1a build//Users/Danny/libmaple/libmaple/usb/usb_lib/usb_regs.o
 .text.GetRxStallStatus
                0x00000000       0x1c build//Users/Danny/libmaple/libmaple/usb/usb_lib/usb_regs.o
 .text.ClearEP_CTR_RX
                0x00000000       0x18 build//Users/Danny/libmaple/libmaple/usb/usb_lib/usb_regs.o
 .text.ClearEP_CTR_TX
                0x00000000       0x18 build//Users/Danny/libmaple/libmaple/usb/usb_lib/usb_regs.o
 .text.ToggleDTOG_RX
                0x00000000       0x1c build//Users/Danny/libmaple/libmaple/usb/usb_lib/usb_regs.o
 .text.ToggleDTOG_TX
                0x00000000       0x1c build//Users/Danny/libmaple/libmaple/usb/usb_lib/usb_regs.o
 .text.SetEPAddress
                0x00000000       0x1a build//Users/Danny/libmaple/libmaple/usb/usb_lib/usb_regs.o
 .text.GetEPAddress
                0x00000000       0x12 build//Users/Danny/libmaple/libmaple/usb/usb_lib/usb_regs.o
 .text.SetEPTxAddr
                0x00000000       0x24 build//Users/Danny/libmaple/libmaple/usb/usb_lib/usb_regs.o
 .text.SetEPRxAddr
                0x00000000       0x24 build//Users/Danny/libmaple/libmaple/usb/usb_lib/usb_regs.o
 .text.SetEPCountRxReg
                0x00000000       0x28 build//Users/Danny/libmaple/libmaple/usb/usb_lib/usb_regs.o
 .text.GetEPTxCount
                0x00000000       0x20 build//Users/Danny/libmaple/libmaple/usb/usb_lib/usb_regs.o
 .text.GetEPRxCount
                0x00000000       0x20 build//Users/Danny/libmaple/libmaple/usb/usb_lib/usb_regs.o
 .text.SetEPDblBuffAddr
                0x00000000       0x40 build//Users/Danny/libmaple/libmaple/usb/usb_lib/usb_regs.o
 .text.SetEPDblBuf0Addr
                0x00000000       0x24 build//Users/Danny/libmaple/libmaple/usb/usb_lib/usb_regs.o
 .text.SetEPDblBuf1Addr
                0x00000000       0x24 build//Users/Danny/libmaple/libmaple/usb/usb_lib/usb_regs.o
 .text.GetEPDblBuf0Addr
                0x00000000       0x1c build//Users/Danny/libmaple/libmaple/usb/usb_lib/usb_regs.o
 .text.GetEPDblBuf1Addr
                0x00000000       0x1c build//Users/Danny/libmaple/libmaple/usb/usb_lib/usb_regs.o
 .text.SetEPDblBuffCount
                0x00000000       0xa8 build//Users/Danny/libmaple/libmaple/usb/usb_lib/usb_regs.o
 .text.SetEPDblBuf0Count
                0x00000000       0x5c build//Users/Danny/libmaple/libmaple/usb/usb_lib/usb_regs.o
 .text.SetEPDblBuf1Count
                0x00000000       0x5c build//Users/Danny/libmaple/libmaple/usb/usb_lib/usb_regs.o
 .text.GetEPDblBuf0Count
                0x00000000       0x20 build//Users/Danny/libmaple/libmaple/usb/usb_lib/usb_regs.o
 .text.GetEPDblBuf1Count
                0x00000000       0x20 build//Users/Danny/libmaple/libmaple/usb/usb_lib/usb_regs.o
 .text.GetEPDblBufDir
                0x00000000       0x44 build//Users/Danny/libmaple/libmaple/usb/usb_lib/usb_regs.o
 .text.FreeUserBuffer
                0x00000000       0x40 build//Users/Danny/libmaple/libmaple/usb/usb_lib/usb_regs.o
 .text.ToWord   0x00000000        0x6 build//Users/Danny/libmaple/libmaple/usb/usb_lib/usb_regs.o
 .data          0x00000000        0x0 build//Users/Danny/libmaple/libmaple/stm32f1/performance/isrs.o
 .bss           0x00000000        0x0 build//Users/Danny/libmaple/libmaple/stm32f1/performance/isrs.o
 .text          0x00000000        0x0 build//Users/Danny/libmaple/libmaple/stm32f1/performance/vector_table.o
 .data          0x00000000        0x0 build//Users/Danny/libmaple/libmaple/stm32f1/performance/vector_table.o
 .bss           0x00000000        0x0 build//Users/Danny/libmaple/libmaple/stm32f1/performance/vector_table.o
 .text          0x00000000        0x0 build//Users/Danny/libmaple/libmaple/stm32f1/adc.o
 .data          0x00000000        0x0 build//Users/Danny/libmaple/libmaple/stm32f1/adc.o
 .bss           0x00000000        0x0 build//Users/Danny/libmaple/libmaple/stm32f1/adc.o
 .text.adc_config_gpio
                0x00000000        0xa build//Users/Danny/libmaple/libmaple/stm32f1/adc.o
 .text          0x00000000        0x0 build//Users/Danny/libmaple/libmaple/stm32f1/bkp.o
 .data          0x00000000        0x0 build//Users/Danny/libmaple/libmaple/stm32f1/bkp.o
 .bss           0x00000000        0x0 build//Users/Danny/libmaple/libmaple/stm32f1/bkp.o
 .text.data_register
                0x00000000       0x18 build//Users/Danny/libmaple/libmaple/stm32f1/bkp.o
 .text.bkp_write
                0x00000000       0x24 build//Users/Danny/libmaple/libmaple/stm32f1/bkp.o
 .text.bkp_read
                0x00000000       0x28 build//Users/Danny/libmaple/libmaple/stm32f1/bkp.o
 .text.bkp_init
                0x00000000       0x18 build//Users/Danny/libmaple/libmaple/stm32f1/bkp.o
 .text.T.4      0x00000000        0x8 build//Users/Danny/libmaple/libmaple/stm32f1/bkp.o
 .text.bkp_disable_writes
                0x00000000        0xc build//Users/Danny/libmaple/libmaple/stm32f1/bkp.o
 .text.bkp_enable_writes
                0x00000000        0xc build//Users/Danny/libmaple/libmaple/stm32f1/bkp.o
 .data.bkp      0x00000000        0x4 build//Users/Danny/libmaple/libmaple/stm32f1/bkp.o
 .data.BKP      0x00000000        0x4 build//Users/Danny/libmaple/libmaple/stm32f1/bkp.o
 .rodata.str1.1
                0x00000000       0x2f build//Users/Danny/libmaple/libmaple/stm32f1/bkp.o
 .text          0x00000000        0x0 build//Users/Danny/libmaple/libmaple/stm32f1/dma.o
 .data          0x00000000        0x0 build//Users/Danny/libmaple/libmaple/stm32f1/dma.o
 .bss           0x00000000        0x0 build//Users/Danny/libmaple/libmaple/stm32f1/dma.o
 .text.dma_tube_regs
                0x00000000        0xe build//Users/Danny/libmaple/libmaple/stm32f1/dma.o
 .text.dma_is_enabled
                0x00000000        0xe build//Users/Danny/libmaple/libmaple/stm32f1/dma.o
 .text.set_ccr  0x00000000       0x2e build//Users/Danny/libmaple/libmaple/stm32f1/dma.o
 .text.cfg_ccr_flags
                0x00000000        0x6 build//Users/Danny/libmaple/libmaple/stm32f1/dma.o
 .text.dma_attach_interrupt
                0x00000000       0x28 build//Users/Danny/libmaple/libmaple/stm32f1/dma.o
 .text.dma_detach_interrupt
                0x00000000       0x1a build//Users/Danny/libmaple/libmaple/stm32f1/dma.o
 .text.dma_set_per_addr
                0x00000000       0x30 build//Users/Danny/libmaple/libmaple/stm32f1/dma.o
 .text.dma_set_mem_addr
                0x00000000       0x30 build//Users/Danny/libmaple/libmaple/stm32f1/dma.o
 .text.dma_set_num_transfers
                0x00000000       0x2c build//Users/Danny/libmaple/libmaple/stm32f1/dma.o
 .text.dma_set_priority
                0x00000000       0x38 build//Users/Danny/libmaple/libmaple/stm32f1/dma.o
 .text.cfg_mem_ok
                0x00000000       0x10 build//Users/Danny/libmaple/libmaple/stm32f1/dma.o
 .text.T.32     0x00000000        0xa build//Users/Danny/libmaple/libmaple/stm32f1/dma.o
 .text.dma_disable
                0x00000000       0x10 build//Users/Danny/libmaple/libmaple/stm32f1/dma.o
 .text.dma_setup_transfer
                0x00000000       0x38 build//Users/Danny/libmaple/libmaple/stm32f1/dma.o
 .text.dma_get_irq_cause
                0x00000000       0x74 build//Users/Danny/libmaple/libmaple/stm32f1/dma.o
 .text.dma_tube_cfg
                0x00000000      0x13c build//Users/Danny/libmaple/libmaple/stm32f1/dma.o
 .text.dma_enable
                0x00000000       0x10 build//Users/Danny/libmaple/libmaple/stm32f1/dma.o
 .rodata.str1.1
                0x00000000       0xa9 build//Users/Danny/libmaple/libmaple/stm32f1/dma.o
 .text          0x00000000        0x0 build//Users/Danny/libmaple/libmaple/stm32f1/exti.o
 .data          0x00000000        0x0 build//Users/Danny/libmaple/libmaple/stm32f1/exti.o
 .bss           0x00000000        0x0 build//Users/Danny/libmaple/libmaple/stm32f1/exti.o
 .text.exti_select
                0x00000000       0x18 build//Users/Danny/libmaple/libmaple/stm32f1/exti.o
 .text          0x00000000        0x0 build//Users/Danny/libmaple/libmaple/stm32f1/fsmc.o
 .data          0x00000000        0x0 build//Users/Danny/libmaple/libmaple/stm32f1/fsmc.o
 .bss           0x00000000        0x0 build//Users/Danny/libmaple/libmaple/stm32f1/fsmc.o
 .text          0x00000000        0x0 build//Users/Danny/libmaple/libmaple/stm32f1/gpio.o
 .data          0x00000000        0x0 build//Users/Danny/libmaple/libmaple/stm32f1/gpio.o
 .bss           0x00000000        0x0 build//Users/Danny/libmaple/libmaple/stm32f1/gpio.o
 .text.afio_remap
                0x00000000       0x20 build//Users/Danny/libmaple/libmaple/stm32f1/gpio.o
 .text          0x00000000        0x0 build//Users/Danny/libmaple/libmaple/stm32f1/i2c.o
 .data          0x00000000        0x0 build//Users/Danny/libmaple/libmaple/stm32f1/i2c.o
 .bss           0x00000000        0x0 build//Users/Danny/libmaple/libmaple/stm32f1/i2c.o
 .text.scl_port
                0x00000000        0xa build//Users/Danny/libmaple/libmaple/stm32f1/i2c.o
 .text.sda_port
                0x00000000        0xa build//Users/Danny/libmaple/libmaple/stm32f1/i2c.o
 .text.i2c_config_gpios
                0x00000000       0x52 build//Users/Danny/libmaple/libmaple/stm32f1/i2c.o
 .text.T.4      0x00000000        0xa build//Users/Danny/libmaple/libmaple/stm32f1/i2c.o
 .text.i2c_master_release_bus
                0x00000000       0x3a build//Users/Danny/libmaple/libmaple/stm32f1/i2c.o
 .rodata.I2C1   0x00000000        0x4 build//Users/Danny/libmaple/libmaple/stm32f1/i2c.o
 .rodata.I2C2   0x00000000        0x4 build//Users/Danny/libmaple/libmaple/stm32f1/i2c.o
 .text          0x00000000        0x0 build//Users/Danny/libmaple/libmaple/stm32f1/rcc.o
 .data          0x00000000        0x0 build//Users/Danny/libmaple/libmaple/stm32f1/rcc.o
 .bss           0x00000000        0x0 build//Users/Danny/libmaple/libmaple/stm32f1/rcc.o
 .text.rcc_clk_init
                0x00000000       0x58 build//Users/Danny/libmaple/libmaple/stm32f1/rcc.o
 .text          0x00000000        0x0 build//Users/Danny/libmaple/libmaple/stm32f1/spi.o
 .data          0x00000000        0x0 build//Users/Danny/libmaple/libmaple/stm32f1/spi.o
 .bss           0x00000000        0x0 build//Users/Danny/libmaple/libmaple/stm32f1/spi.o
 .text.spi_foreach
                0x00000000       0x1c build//Users/Danny/libmaple/libmaple/stm32f1/spi.o
 .data.spi2     0x00000000        0x8 build//Users/Danny/libmaple/libmaple/stm32f1/spi.o
 .data.SPI2     0x00000000        0x4 build//Users/Danny/libmaple/libmaple/stm32f1/spi.o
 .text          0x00000000        0x0 build//Users/Danny/libmaple/libmaple/stm32f1/timer.o
 .data          0x00000000        0x0 build//Users/Danny/libmaple/libmaple/stm32f1/timer.o
 .bss           0x00000000        0x0 build//Users/Danny/libmaple/libmaple/stm32f1/timer.o
 .text          0x00000000        0x0 build//Users/Danny/libmaple/libmaple/stm32f1/usart.o
 .data          0x00000000        0x0 build//Users/Danny/libmaple/libmaple/stm32f1/usart.o
 .bss           0x00000000        0x0 build//Users/Danny/libmaple/libmaple/stm32f1/usart.o
 .text.usart_config_gpios_async
                0x00000000       0x20 build//Users/Danny/libmaple/libmaple/stm32f1/usart.o
 .data          0x00000000        0x0 build//Users/Danny/libmaple/wirish/start.o
 .bss           0x00000000        0x0 build//Users/Danny/libmaple/wirish/start.o
 .ARM.extab     0x00000000        0x0 build//Users/Danny/libmaple/wirish/start.o
 .text          0x00000000        0x0 build//Users/Danny/libmaple/wirish/start_c.o
 .data          0x00000000        0x0 build//Users/Danny/libmaple/wirish/start_c.o
 .bss           0x00000000        0x0 build//Users/Danny/libmaple/wirish/start_c.o
 .text          0x00000000        0x0 build//Users/Danny/libmaple/wirish/syscalls.o
 .data          0x00000000        0x0 build//Users/Danny/libmaple/wirish/syscalls.o
 .bss           0x00000000        0x0 build//Users/Danny/libmaple/wirish/syscalls.o
 .text._open    0x00000000        0x8 build//Users/Danny/libmaple/wirish/syscalls.o
 .text._close   0x00000000        0x4 build//Users/Danny/libmaple/wirish/syscalls.o
 .text._fstat   0x00000000        0xa build//Users/Danny/libmaple/wirish/syscalls.o
 .text._isatty  0x00000000        0x4 build//Users/Danny/libmaple/wirish/syscalls.o
 .text.isatty   0x00000000        0x4 build//Users/Danny/libmaple/wirish/syscalls.o
 .text._lseek   0x00000000        0x6 build//Users/Danny/libmaple/wirish/syscalls.o
 .text.getch    0x00000000        0x4 build//Users/Danny/libmaple/wirish/syscalls.o
 .text._read    0x00000000        0xe build//Users/Danny/libmaple/wirish/syscalls.o
 .text.putch    0x00000000        0x2 build//Users/Danny/libmaple/wirish/syscalls.o
 .text.cgets    0x00000000       0x6c build//Users/Danny/libmaple/wirish/syscalls.o
 .text._write   0x00000000       0x1a build//Users/Danny/libmaple/wirish/syscalls.o
 .text.fgets    0x00000000        0xc build//Users/Danny/libmaple/wirish/syscalls.o
 .text          0x00000000        0x0 build//Users/Danny/libmaple/wirish/stm32f1/util_hooks.o
 .data          0x00000000        0x0 build//Users/Danny/libmaple/wirish/stm32f1/util_hooks.o
 .bss           0x00000000        0x0 build//Users/Danny/libmaple/wirish/stm32f1/util_hooks.o
 .text          0x00000000        0x0 build//Users/Danny/libmaple/wirish/boards.o
 .data          0x00000000        0x0 build//Users/Danny/libmaple/wirish/boards.o
 .bss           0x00000000        0x0 build//Users/Danny/libmaple/wirish/boards.o
 .text._Z12boardUsesPinh
                0x00000000       0x1c build//Users/Danny/libmaple/wirish/boards.o
 .text          0x00000000        0x0 build//Users/Danny/libmaple/wirish/cxxabi-compat.o
 .data          0x00000000        0x0 build//Users/Danny/libmaple/wirish/cxxabi-compat.o
 .bss           0x00000000        0x0 build//Users/Danny/libmaple/wirish/cxxabi-compat.o
 .text          0x00000000        0x0 build//Users/Danny/libmaple/wirish/ext_interrupts.o
 .data          0x00000000        0x0 build//Users/Danny/libmaple/wirish/ext_interrupts.o
 .bss           0x00000000        0x0 build//Users/Danny/libmaple/wirish/ext_interrupts.o
 .text._Z15detachInterrupth
                0x00000000       0x18 build//Users/Danny/libmaple/wirish/ext_interrupts.o
 .text._Z15attachInterrupthPFvvE17ExtIntTriggerMode
                0x00000000       0x50 build//Users/Danny/libmaple/wirish/ext_interrupts.o
 .rodata.str1.1
                0x00000000       0x32 build//Users/Danny/libmaple/wirish/ext_interrupts.o
 .group         0x00000000        0x8 build//Users/Danny/libmaple/wirish/HardwareSerial.o
 .text          0x00000000        0x0 build//Users/Danny/libmaple/wirish/HardwareSerial.o
 .data          0x00000000        0x0 build//Users/Danny/libmaple/wirish/HardwareSerial.o
 .bss           0x00000000        0x0 build//Users/Danny/libmaple/wirish/HardwareSerial.o
 .text._ZN14HardwareSerialC2EP9usart_devhh
                0x00000000       0x20 build//Users/Danny/libmaple/wirish/HardwareSerial.o
 .text._ZN14HardwareSerial9availableEv
                0x00000000       0x22 build//Users/Danny/libmaple/wirish/HardwareSerial.o
 .text._ZN14HardwareSerial4readEv
                0x00000000       0x2a build//Users/Danny/libmaple/wirish/HardwareSerial.o
 .text._ZN14HardwareSerial5flushEv
                0x00000000        0xa build//Users/Danny/libmaple/wirish/HardwareSerial.o
 .text._ZN14HardwareSerial3endEv
                0x00000000        0x6 build//Users/Danny/libmaple/wirish/HardwareSerial.o
 .text._ZN14HardwareSerial5beginEj
                0x00000000       0x88 build//Users/Danny/libmaple/wirish/HardwareSerial.o
 .rodata.str1.1
                0x00000000       0x55 build//Users/Danny/libmaple/wirish/HardwareSerial.o
 .text          0x00000000        0x0 build//Users/Danny/libmaple/wirish/HardwareTimer.o
 .data          0x00000000        0x0 build//Users/Danny/libmaple/wirish/HardwareTimer.o
 .bss           0x00000000        0x0 build//Users/Danny/libmaple/wirish/HardwareTimer.o
 .text._ZN13HardwareTimer17getPrescaleFactorEv
                0x00000000        0xc build//Users/Danny/libmaple/wirish/HardwareTimer.o
 .text._ZN13HardwareTimer17setPrescaleFactorEj
                0x00000000        0xc build//Users/Danny/libmaple/wirish/HardwareTimer.o
 .text._ZN13HardwareTimer11getOverflowEv
                0x00000000        0xa build//Users/Danny/libmaple/wirish/HardwareTimer.o
 .text._ZN13HardwareTimer11setOverflowEt
                0x00000000        0x8 build//Users/Danny/libmaple/wirish/HardwareTimer.o
 .text._ZN13HardwareTimer8getCountEv
                0x00000000        0xa build//Users/Danny/libmaple/wirish/HardwareTimer.o
 .text._ZN13HardwareTimer8setCountEt
                0x00000000       0x12 build//Users/Danny/libmaple/wirish/HardwareTimer.o
 .text._ZN13HardwareTimer9setPeriodEj
                0x00000000       0x4a build//Users/Danny/libmaple/wirish/HardwareTimer.o
 .text._ZN13HardwareTimer10getCompareEi
                0x00000000       0x12 build//Users/Danny/libmaple/wirish/HardwareTimer.o
 .text._ZN13HardwareTimer10setCompareEit
                0x00000000       0x1a build//Users/Danny/libmaple/wirish/HardwareTimer.o
 .text._ZN13HardwareTimer15detachInterruptEi
                0x00000000        0x8 build//Users/Danny/libmaple/wirish/HardwareTimer.o
 .text._ZN13HardwareTimer15attachInterruptEiPFvvE
                0x00000000        0x8 build//Users/Danny/libmaple/wirish/HardwareTimer.o
 .text._ZN13HardwareTimer7setModeEi10timer_mode
                0x00000000        0x8 build//Users/Danny/libmaple/wirish/HardwareTimer.o
 .text._ZN13HardwareTimerC2Eh
                0x00000000       0x48 build//Users/Danny/libmaple/wirish/HardwareTimer.o
 .text.T.10     0x00000000        0x8 build//Users/Danny/libmaple/wirish/HardwareTimer.o
 .text._ZN13HardwareTimer7refreshEv
                0x00000000       0x12 build//Users/Danny/libmaple/wirish/HardwareTimer.o
 .text._ZN13HardwareTimer6resumeEv
                0x00000000       0x10 build//Users/Danny/libmaple/wirish/HardwareTimer.o
 .text._ZN13HardwareTimer5pauseEv
                0x00000000       0x10 build//Users/Danny/libmaple/wirish/HardwareTimer.o
 .text          0x00000000        0x0 build//Users/Danny/libmaple/wirish/Print.o
 .data          0x00000000        0x0 build//Users/Danny/libmaple/wirish/Print.o
 .bss           0x00000000        0x0 build//Users/Danny/libmaple/wirish/Print.o
 .text._ZN5Print7printlnEc
                0x00000000       0x12 build//Users/Danny/libmaple/wirish/Print.o
 .text._ZN5Print7printlnEyi
                0x00000000       0x18 build//Users/Danny/libmaple/wirish/Print.o
 .text._ZN5Print7printlnEmi
                0x00000000       0x1a build//Users/Danny/libmaple/wirish/Print.o
 .text._ZN5Print5printEmi
                0x00000000        0xe build//Users/Danny/libmaple/wirish/Print.o
 .text._ZN5Print5printEji
                0x00000000        0xe build//Users/Danny/libmaple/wirish/Print.o
 .text._ZN5Print7printlnEji
                0x00000000       0x12 build//Users/Danny/libmaple/wirish/Print.o
 .text._ZN5Print7printlnExi
                0x00000000       0x18 build//Users/Danny/libmaple/wirish/Print.o
 .text._ZN5Print7printlnEli
                0x00000000       0x1c build//Users/Danny/libmaple/wirish/Print.o
 .text._ZN5Print5printEli
                0x00000000       0x10 build//Users/Danny/libmaple/wirish/Print.o
 .text._ZN5Print10printFloatEdh
                0x00000000      0x150 build//Users/Danny/libmaple/wirish/Print.o
 .text._ZN5Print5printEdi
                0x00000000        0xa build//Users/Danny/libmaple/wirish/Print.o
 .text._ZN5Print7printlnEdi
                0x00000000       0x18 build//Users/Danny/libmaple/wirish/Print.o
 .rodata.str1.1
                0x00000000       0x11 build//Users/Danny/libmaple/wirish/Print.o
 .text          0x00000000        0x0 build//Users/Danny/libmaple/wirish/pwm.o
 .data          0x00000000        0x0 build//Users/Danny/libmaple/wirish/pwm.o
 .bss           0x00000000        0x0 build//Users/Danny/libmaple/wirish/pwm.o
 .text._Z8pwmWriteht
                0x00000000       0x38 build//Users/Danny/libmaple/wirish/pwm.o
 .rodata.str1.1
                0x00000000       0x37 build//Users/Danny/libmaple/wirish/pwm.o
 .group         0x00000000        0x8 build//Users/Danny/libmaple/wirish/usb_serial.o
 .text          0x00000000        0x0 build//Users/Danny/libmaple/wirish/usb_serial.o
 .data          0x00000000        0x0 build//Users/Danny/libmaple/wirish/usb_serial.o
 .bss           0x00000000        0x0 build//Users/Danny/libmaple/wirish/usb_serial.o
 .text._ZN5PrintC2Ev
                0x00000000        0xc build//Users/Danny/libmaple/wirish/usb_serial.o
 .text._ZN9USBSerialC2Ev
                0x00000000       0x14 build//Users/Danny/libmaple/wirish/usb_serial.o
 .text._ZN9USBSerial6getRTSEv
                0x00000000        0x4 build//Users/Danny/libmaple/wirish/usb_serial.o
 .text._ZN9USBSerial6getDTREv
                0x00000000        0x4 build//Users/Danny/libmaple/wirish/usb_serial.o
 .text._ZN9USBSerial7pendingEv
                0x00000000        0xa build//Users/Danny/libmaple/wirish/usb_serial.o
 .text._ZN9USBSerial3endEv
                0x00000000       0x1c build//Users/Danny/libmaple/wirish/usb_serial.o
 .text          0x00000000        0x0 build//Users/Danny/libmaple/wirish/HardwareSPI.o
 .data          0x00000000        0x0 build//Users/Danny/libmaple/wirish/HardwareSPI.o
 .bss           0x00000000        0x0 build//Users/Danny/libmaple/wirish/HardwareSPI.o
 .text.spi_is_rx_nonempty
                0x00000000        0xa build//Users/Danny/libmaple/wirish/HardwareSPI.o
 .text._ZN11HardwareSPI4readEPhj
                0x00000000       0x26 build//Users/Danny/libmaple/wirish/HardwareSPI.o
 .text._ZN11HardwareSPI4readEv
                0x00000000       0x10 build//Users/Danny/libmaple/wirish/HardwareSPI.o
 .text._ZN11HardwareSPI4recvEv
                0x00000000        0x4 build//Users/Danny/libmaple/wirish/HardwareSPI.o
 .text._ZL15dev_to_spi_pinsP7spi_dev
                0x00000000       0x1c build//Users/Danny/libmaple/wirish/HardwareSPI.o
 .text._ZN11HardwareSPI6nssPinEv
                0x00000000        0xc build//Users/Danny/libmaple/wirish/HardwareSPI.o
 .text._ZN11HardwareSPI6sckPinEv
                0x00000000        0xc build//Users/Danny/libmaple/wirish/HardwareSPI.o
 .text._ZN11HardwareSPI7mosiPinEv
                0x00000000        0xc build//Users/Danny/libmaple/wirish/HardwareSPI.o
 .text._ZN11HardwareSPI7misoPinEv
                0x00000000        0xc build//Users/Danny/libmaple/wirish/HardwareSPI.o
 .text._ZN11HardwareSPI5writeEPKhj
                0x00000000       0x1e build//Users/Danny/libmaple/wirish/HardwareSPI.o
 .text._ZN11HardwareSPI5writeEh
                0x00000000       0x12 build//Users/Danny/libmaple/wirish/HardwareSPI.o
 .text._ZN11HardwareSPI4sendEPhj
                0x00000000       0x24 build//Users/Danny/libmaple/wirish/HardwareSPI.o
 .text._ZN11HardwareSPI4sendEh
                0x00000000       0x12 build//Users/Danny/libmaple/wirish/HardwareSPI.o
 .text._ZN11HardwareSPI8transferEh
                0x00000000       0x12 build//Users/Danny/libmaple/wirish/HardwareSPI.o
 .text._ZN11HardwareSPI3endEv
                0x00000000       0x4e build//Users/Danny/libmaple/wirish/HardwareSPI.o
 .text._ZN11HardwareSPIC1Ej
                0x00000000       0x38 build//Users/Danny/libmaple/wirish/HardwareSPI.o
 .text._ZN11HardwareSPIC2Ej
                0x00000000       0x38 build//Users/Danny/libmaple/wirish/HardwareSPI.o
 .text._ZL11disable_pwmPK14stm32_pin_info
                0x00000000       0x10 build//Users/Danny/libmaple/wirish/HardwareSPI.o
 .text._ZL13enable_deviceP7spi_devb12SPIFrequency12spi_cfg_flag8spi_mode
                0x00000000      0x114 build//Users/Danny/libmaple/wirish/HardwareSPI.o
 .text._ZN11HardwareSPI10beginSlaveEjj
                0x00000000       0x3c build//Users/Danny/libmaple/wirish/HardwareSPI.o
 .text._ZN11HardwareSPI10beginSlaveEv
                0x00000000        0x8 build//Users/Danny/libmaple/wirish/HardwareSPI.o
 .text._ZN11HardwareSPI5beginE12SPIFrequencyjj
                0x00000000       0x3c build//Users/Danny/libmaple/wirish/HardwareSPI.o
 .text._ZN11HardwareSPI5beginEv
                0x00000000        0xa build//Users/Danny/libmaple/wirish/HardwareSPI.o
 .USER_FLASH    0x00000000       0x10 build//Users/Danny/libmaple/wirish/HardwareSPI.o
 .rodata.str1.1
                0x00000000       0x2f build//Users/Danny/libmaple/wirish/HardwareSPI.o
 .rodata.CSWTCH.26
                0x00000000        0x8 build//Users/Danny/libmaple/wirish/HardwareSPI.o
 .text          0x00000000        0x0 build//Users/Danny/libmaple/wirish/wirish_analog.o
 .data          0x00000000        0x0 build//Users/Danny/libmaple/wirish/wirish_analog.o
 .bss           0x00000000        0x0 build//Users/Danny/libmaple/wirish/wirish_analog.o
 .text._Z10analogReadh
                0x00000000       0x1c build//Users/Danny/libmaple/wirish/wirish_analog.o
 .text          0x00000000        0x0 build//Users/Danny/libmaple/wirish/wirish_digital.o
 .data          0x00000000        0x0 build//Users/Danny/libmaple/wirish/wirish_digital.o
 .bss           0x00000000        0x0 build//Users/Danny/libmaple/wirish/wirish_digital.o
 .text._Z11digitalReadh
                0x00000000       0x2c build//Users/Danny/libmaple/wirish/wirish_digital.o
 .text._Z12digitalWritehh
                0x00000000       0x30 build//Users/Danny/libmaple/wirish/wirish_digital.o
 .text._Z9togglePinh
                0x00000000       0x24 build//Users/Danny/libmaple/wirish/wirish_digital.o
 .text._Z15isButtonPressedhj
                0x00000000       0x28 build//Users/Danny/libmaple/wirish/wirish_digital.o
 .text._Z18waitForButtonPressj
                0x00000000       0x48 build//Users/Danny/libmaple/wirish/wirish_digital.o
 .text          0x00000000        0x0 build//Users/Danny/libmaple/wirish/wirish_math.o
 .data          0x00000000        0x0 build//Users/Danny/libmaple/wirish/wirish_math.o
 .bss           0x00000000        0x0 build//Users/Danny/libmaple/wirish/wirish_math.o
 .text._Z6randoml
                0x00000000       0x16 build//Users/Danny/libmaple/wirish/wirish_math.o
 .text._Z6randomll
                0x00000000       0x14 build//Users/Danny/libmaple/wirish/wirish_math.o
 .text._Z10randomSeedj
                0x00000000        0x8 build//Users/Danny/libmaple/wirish/wirish_math.o
 .text          0x00000000        0x0 build//Users/Danny/libmaple/wirish/wirish_shift.o
 .data          0x00000000        0x0 build//Users/Danny/libmaple/wirish/wirish_shift.o
 .bss           0x00000000        0x0 build//Users/Danny/libmaple/wirish/wirish_shift.o
 .text._Z8shiftOuthhhh
                0x00000000       0x44 build//Users/Danny/libmaple/wirish/wirish_shift.o
 .text          0x00000000        0x0 build//Users/Danny/libmaple/wirish/wirish_time.o
 .data          0x00000000        0x0 build//Users/Danny/libmaple/wirish/wirish_time.o
 .bss           0x00000000        0x0 build//Users/Danny/libmaple/wirish/wirish_time.o
 .text          0x00000000        0x0 build//Users/Danny/libmaple/wirish/stm32f1/boards_setup.o
 .data          0x00000000        0x0 build//Users/Danny/libmaple/wirish/stm32f1/boards_setup.o
 .bss           0x00000000        0x0 build//Users/Danny/libmaple/wirish/stm32f1/boards_setup.o
 .text          0x00000000        0x0 build//Users/Danny/libmaple/wirish/stm32f1/wirish_digital.o
 .data          0x00000000        0x0 build//Users/Danny/libmaple/wirish/stm32f1/wirish_digital.o
 .bss           0x00000000        0x0 build//Users/Danny/libmaple/wirish/stm32f1/wirish_digital.o
 .text._Z7pinModeh13WiringPinMode
                0x00000000       0x88 build//Users/Danny/libmaple/wirish/stm32f1/wirish_digital.o
 .rodata.str1.1
                0x00000000       0x3a build//Users/Danny/libmaple/wirish/stm32f1/wirish_digital.o
 .text          0x00000000        0x0 build//Users/Danny/libmaple/wirish/stm32f1/wirish_debug.o
 .data          0x00000000        0x0 build//Users/Danny/libmaple/wirish/stm32f1/wirish_debug.o
 .bss           0x00000000        0x0 build//Users/Danny/libmaple/wirish/stm32f1/wirish_debug.o
 .text.afio_cfg_debug_ports
                0x00000000       0x14 build//Users/Danny/libmaple/wirish/stm32f1/wirish_debug.o
 .text._Z17disableDebugPortsv
                0x00000000        0x8 build//Users/Danny/libmaple/wirish/stm32f1/wirish_debug.o
 .text._Z16enableDebugPortsv
                0x00000000        0x6 build//Users/Danny/libmaple/wirish/stm32f1/wirish_debug.o
 .text          0x00000000        0x0 build//Users/Danny/libmaple/wirish/boards/maple/board.o
 .data          0x00000000        0x0 build//Users/Danny/libmaple/wirish/boards/maple/board.o
 .bss           0x00000000        0x0 build//Users/Danny/libmaple/wirish/boards/maple/board.o
 .USER_FLASH    0x00000000       0x28 build//Users/Danny/libmaple/wirish/boards/maple/board.o
 .group         0x00000000        0x8 build//Users/Danny/libmaple/libraries/Servo/Servo.o
 .text          0x00000000        0x0 build//Users/Danny/libmaple/libraries/Servo/Servo.o
 .data          0x00000000        0x0 build//Users/Danny/libmaple/libraries/Servo/Servo.o
 .bss           0x00000000        0x0 build//Users/Danny/libmaple/libraries/Servo/Servo.o
 .text._ZNK5Servo8attachedEv
                0x00000000        0xe build//Users/Danny/libmaple/libraries/Servo/Servo.o
 .text._ZL3maplllll
                0x00000000       0x1a build//Users/Danny/libmaple/libraries/Servo/Servo.o
 .text._ZN5Servo11resetFieldsEv
                0x00000000       0x20 build//Users/Danny/libmaple/libraries/Servo/Servo.o
 .text._ZN5ServoC1Ev
                0x00000000        0xc build//Users/Danny/libmaple/libraries/Servo/Servo.o
 .text._ZN5ServoC2Ev
                0x00000000        0xc build//Users/Danny/libmaple/libraries/Servo/Servo.o
 .text._ZNK5Servo16readMicrosecondsEv
                0x00000000       0x68 build//Users/Danny/libmaple/libraries/Servo/Servo.o
 .text._ZNK5Servo4readEv
                0x00000000       0x2a build//Users/Danny/libmaple/libraries/Servo/Servo.o
 .text._ZN5Servo17writeMicrosecondsEt
                0x00000000       0x54 build//Users/Danny/libmaple/libraries/Servo/Servo.o
 .text._ZN5Servo5writeEi
                0x00000000       0x38 build//Users/Danny/libmaple/libraries/Servo/Servo.o
 .text._ZN5Servo6detachEv
                0x00000000       0x30 build//Users/Danny/libmaple/libraries/Servo/Servo.o
 .text.T.15     0x00000000        0x8 build//Users/Danny/libmaple/libraries/Servo/Servo.o
 .text._ZN5Servo6attachEhttss
                0x00000000       0x78 build//Users/Danny/libmaple/libraries/Servo/Servo.o
 .rodata.str1.1
                0x00000000       0x32 build//Users/Danny/libmaple/libraries/Servo/Servo.o
 .group         0x00000000        0x8 build//Users/Danny/libmaple/libraries/LiquidCrystal/LiquidCrystal.o
 .group         0x00000000        0x8 build//Users/Danny/libmaple/libraries/LiquidCrystal/LiquidCrystal.o
 .group         0x00000000        0x8 build//Users/Danny/libmaple/libraries/LiquidCrystal/LiquidCrystal.o
 .group         0x00000000        0x8 build//Users/Danny/libmaple/libraries/LiquidCrystal/LiquidCrystal.o
 .text          0x00000000        0x0 build//Users/Danny/libmaple/libraries/LiquidCrystal/LiquidCrystal.o
 .data          0x00000000        0x0 build//Users/Danny/libmaple/libraries/LiquidCrystal/LiquidCrystal.o
 .bss           0x00000000        0x0 build//Users/Danny/libmaple/libraries/LiquidCrystal/LiquidCrystal.o
 .text._ZN5PrintC2Ev
                0x00000000        0xc build//Users/Danny/libmaple/libraries/LiquidCrystal/LiquidCrystal.o
 .text._ZN13LiquidCrystal11pulseEnableEv
                0x00000000       0x2e build//Users/Danny/libmaple/libraries/LiquidCrystal/LiquidCrystal.o
 .text._ZN13LiquidCrystal10write8bitsEh
                0x00000000       0x28 build//Users/Danny/libmaple/libraries/LiquidCrystal/LiquidCrystal.o
 .text._ZN13LiquidCrystal10write4bitsEh
                0x00000000       0x28 build//Users/Danny/libmaple/libraries/LiquidCrystal/LiquidCrystal.o
 .text._ZN13LiquidCrystal4sendEhh
                0x00000000       0x40 build//Users/Danny/libmaple/libraries/LiquidCrystal/LiquidCrystal.o
 .text._ZN13LiquidCrystal7commandEh
                0x00000000        0x6 build//Users/Danny/libmaple/libraries/LiquidCrystal/LiquidCrystal.o
 .text._ZN13LiquidCrystal10createCharEhPh
                0x00000000       0x28 build//Users/Danny/libmaple/libraries/LiquidCrystal/LiquidCrystal.o
 .text._ZN13LiquidCrystal12noAutoscrollEv
                0x00000000       0x10 build//Users/Danny/libmaple/libraries/LiquidCrystal/LiquidCrystal.o
 .text._ZN13LiquidCrystal10autoscrollEv
                0x00000000       0x10 build//Users/Danny/libmaple/libraries/LiquidCrystal/LiquidCrystal.o
 .text._ZN13LiquidCrystal11rightToLeftEv
                0x00000000       0x10 build//Users/Danny/libmaple/libraries/LiquidCrystal/LiquidCrystal.o
 .text._ZN13LiquidCrystal11leftToRightEv
                0x00000000       0x10 build//Users/Danny/libmaple/libraries/LiquidCrystal/LiquidCrystal.o
 .text._ZN13LiquidCrystal18scrollDisplayRightEv
                0x00000000        0x6 build//Users/Danny/libmaple/libraries/LiquidCrystal/LiquidCrystal.o
 .text._ZN13LiquidCrystal17scrollDisplayLeftEv
                0x00000000        0x6 build//Users/Danny/libmaple/libraries/LiquidCrystal/LiquidCrystal.o
 .text._ZN13LiquidCrystal5blinkEv
                0x00000000       0x10 build//Users/Danny/libmaple/libraries/LiquidCrystal/LiquidCrystal.o
 .text._ZN13LiquidCrystal7noBlinkEv
                0x00000000       0x10 build//Users/Danny/libmaple/libraries/LiquidCrystal/LiquidCrystal.o
 .text._ZN13LiquidCrystal6cursorEv
                0x00000000       0x10 build//Users/Danny/libmaple/libraries/LiquidCrystal/LiquidCrystal.o
 .text._ZN13LiquidCrystal8noCursorEv
                0x00000000       0x10 build//Users/Danny/libmaple/libraries/LiquidCrystal/LiquidCrystal.o
 .text._ZN13LiquidCrystal7displayEv
                0x00000000       0x10 build//Users/Danny/libmaple/libraries/LiquidCrystal/LiquidCrystal.o
 .text._ZN13LiquidCrystal9noDisplayEv
                0x00000000       0x10 build//Users/Danny/libmaple/libraries/LiquidCrystal/LiquidCrystal.o
 .text._ZN13LiquidCrystal9setCursorEhh
                0x00000000       0x44 build//Users/Danny/libmaple/libraries/LiquidCrystal/LiquidCrystal.o
 .text._ZN13LiquidCrystal5writeEh
                0x00000000        0x6 build//Users/Danny/libmaple/libraries/LiquidCrystal/LiquidCrystal.o
 .text._ZN13LiquidCrystal4homeEv
                0x00000000       0x12 build//Users/Danny/libmaple/libraries/LiquidCrystal/LiquidCrystal.o
 .text._ZN13LiquidCrystal5clearEv
                0x00000000       0x12 build//Users/Danny/libmaple/libraries/LiquidCrystal/LiquidCrystal.o
 .text._ZN13LiquidCrystal5beginEhhh
                0x00000000       0xda build//Users/Danny/libmaple/libraries/LiquidCrystal/LiquidCrystal.o
 .text._ZN13LiquidCrystal4initEhhhhhhhhhhhh
                0x00000000       0x9c build//Users/Danny/libmaple/libraries/LiquidCrystal/LiquidCrystal.o
 .text._ZN13LiquidCrystalC1Ehhhhhh
                0x00000000       0x54 build//Users/Danny/libmaple/libraries/LiquidCrystal/LiquidCrystal.o
 .text._ZN13LiquidCrystalC2Ehhhhhh
                0x00000000       0x54 build//Users/Danny/libmaple/libraries/LiquidCrystal/LiquidCrystal.o
 .text._ZN13LiquidCrystalC1Ehhhhhhh
                0x00000000       0x5c build//Users/Danny/libmaple/libraries/LiquidCrystal/LiquidCrystal.o
 .text._ZN13LiquidCrystalC2Ehhhhhhh
                0x00000000       0x5c build//Users/Danny/libmaple/libraries/LiquidCrystal/LiquidCrystal.o
 .text._ZN13LiquidCrystalC1Ehhhhhhhhhh
                0x00000000       0x70 build//Users/Danny/libmaple/libraries/LiquidCrystal/LiquidCrystal.o
 .text._ZN13LiquidCrystalC2Ehhhhhhhhhh
                0x00000000       0x70 build//Users/Danny/libmaple/libraries/LiquidCrystal/LiquidCrystal.o
 .text._ZN13LiquidCrystalC1Ehhhhhhhhhhh
                0x00000000       0x74 build//Users/Danny/libmaple/libraries/LiquidCrystal/LiquidCrystal.o
 .text._ZN13LiquidCrystalC2Ehhhhhhhhhhh
                0x00000000       0x74 build//Users/Danny/libmaple/libraries/LiquidCrystal/LiquidCrystal.o
 .rodata._ZTV13LiquidCrystal
                0x00000000       0x18 build//Users/Danny/libmaple/libraries/LiquidCrystal/LiquidCrystal.o
 .rodata._ZZN13LiquidCrystal9setCursorEhhE3C.8
                0x00000000       0x10 build//Users/Danny/libmaple/libraries/LiquidCrystal/LiquidCrystal.o
 .text          0x00000000        0x0 build//Users/Danny/libmaple/libraries/Wire/WireBase.o
 .data          0x00000000        0x0 build//Users/Danny/libmaple/libraries/Wire/WireBase.o
 .bss           0x00000000        0x0 build//Users/Danny/libmaple/libraries/Wire/WireBase.o
 .text._ZN8WireBase5beginEh
                0x00000000       0x14 build//Users/Danny/libmaple/libraries/Wire/WireBase.o
 .text._ZN8WireBase17beginTransmissionEh
                0x00000000       0x14 build//Users/Danny/libmaple/libraries/Wire/WireBase.o
 .text._ZN8WireBase17beginTransmissionEi
                0x00000000        0x6 build//Users/Danny/libmaple/libraries/Wire/WireBase.o
 .text._ZN8WireBase15endTransmissionEv
                0x00000000       0x20 build//Users/Danny/libmaple/libraries/Wire/WireBase.o
 .text._ZN8WireBase11requestFromEhi
                0x00000000       0x3a build//Users/Danny/libmaple/libraries/Wire/WireBase.o
 .text._ZN8WireBase11requestFromEii
                0x00000000        0x6 build//Users/Danny/libmaple/libraries/Wire/WireBase.o
 .text._ZN8WireBase4sendEh
                0x00000000       0x24 build//Users/Danny/libmaple/libraries/Wire/WireBase.o
 .text._ZN8WireBase4sendEPhi
                0x00000000       0x1e build//Users/Danny/libmaple/libraries/Wire/WireBase.o
 .text._ZN8WireBase4sendEi
                0x00000000        0x6 build//Users/Danny/libmaple/libraries/Wire/WireBase.o
 .text._ZN8WireBase4sendEPii
                0x00000000        0x6 build//Users/Danny/libmaple/libraries/Wire/WireBase.o
 .text._ZN8WireBase4sendEPc
                0x00000000       0x1a build//Users/Danny/libmaple/libraries/Wire/WireBase.o
 .text._ZN8WireBase9availableEv
                0x00000000        0xe build//Users/Danny/libmaple/libraries/Wire/WireBase.o
 .text._ZN8WireBase7receiveEv
                0x00000000       0x3a build//Users/Danny/libmaple/libraries/Wire/WireBase.o
 .rodata._ZTV8WireBase
                0x00000000       0x10 build//Users/Danny/libmaple/libraries/Wire/WireBase.o
 .group         0x00000000        0x8 build//Users/Danny/libmaple/libraries/Wire/HardWire.o
 .group         0x00000000        0x8 build//Users/Danny/libmaple/libraries/Wire/HardWire.o
 .text          0x00000000        0x0 build//Users/Danny/libmaple/libraries/Wire/HardWire.o
 .data          0x00000000        0x0 build//Users/Danny/libmaple/libraries/Wire/HardWire.o
 .bss           0x00000000        0x0 build//Users/Danny/libmaple/libraries/Wire/HardWire.o
 .text.i2c_disable
                0x00000000       0x12 build//Users/Danny/libmaple/libraries/Wire/HardWire.o
 .text._ZN8WireBaseC2Ev
                0x00000000        0xc build//Users/Danny/libmaple/libraries/Wire/HardWire.o
 .text._ZN8WireBaseD2Ev
                0x00000000        0xc build//Users/Danny/libmaple/libraries/Wire/HardWire.o
 .text._ZN8HardWireD2Ev
                0x00000000       0x20 build//Users/Danny/libmaple/libraries/Wire/HardWire.o
 .text._ZN8HardWireD1Ev
                0x00000000       0x20 build//Users/Danny/libmaple/libraries/Wire/HardWire.o
 .text._ZN8HardWireC1Ehh
                0x00000000       0x40 build//Users/Danny/libmaple/libraries/Wire/HardWire.o
 .text._ZN8HardWireC2Ehh
                0x00000000       0x40 build//Users/Danny/libmaple/libraries/Wire/HardWire.o
 .text._ZN8HardWire7processEv
                0x00000000       0x2e build//Users/Danny/libmaple/libraries/Wire/HardWire.o
 .rodata._ZTV8HardWire
                0x00000000       0x10 build//Users/Danny/libmaple/libraries/Wire/HardWire.o
 .group         0x00000000        0x8 build//Users/Danny/libmaple/libraries/Wire/Wire.o
 .group         0x00000000        0x8 build//Users/Danny/libmaple/libraries/Wire/Wire.o
 .text          0x00000000        0x0 build//Users/Danny/libmaple/libraries/Wire/Wire.o
 .data          0x00000000        0x0 build//Users/Danny/libmaple/libraries/Wire/Wire.o
 .bss           0x00000000        0x0 build//Users/Danny/libmaple/libraries/Wire/Wire.o
 .text._ZN8WireBaseC2Ev
                0x00000000        0xc build//Users/Danny/libmaple/libraries/Wire/Wire.o
 .text._ZN8WireBaseD2Ev
                0x00000000        0xc build//Users/Danny/libmaple/libraries/Wire/Wire.o
 .text._ZN7TwoWireC2Ehhh
                0x00000000       0x28 build//Users/Danny/libmaple/libraries/Wire/Wire.o
 .text._ZN7TwoWireC1Ehhh
                0x00000000       0x28 build//Users/Danny/libmaple/libraries/Wire/Wire.o
 .text._ZN7TwoWireD2Ev
                0x00000000       0x20 build//Users/Danny/libmaple/libraries/Wire/Wire.o
 .text._ZN7TwoWireD1Ev
                0x00000000       0x20 build//Users/Danny/libmaple/libraries/Wire/Wire.o
 .text._ZN7TwoWire7set_sdaEb
                0x00000000       0x18 build//Users/Danny/libmaple/libraries/Wire/Wire.o
 .text._ZN7TwoWire7set_sclEb
                0x00000000       0x30 build//Users/Danny/libmaple/libraries/Wire/Wire.o
 .text._ZN7TwoWire5beginEh
                0x00000000       0x3e build//Users/Danny/libmaple/libraries/Wire/Wire.o
 .text._ZN7TwoWire13i2c_shift_outEh
                0x00000000       0x2c build//Users/Danny/libmaple/libraries/Wire/Wire.o
 .text._ZN7TwoWire12i2c_shift_inEv
                0x00000000       0x34 build//Users/Danny/libmaple/libraries/Wire/Wire.o
 .text._ZN7TwoWire13i2c_send_nackEv
                0x00000000       0x1e build//Users/Danny/libmaple/libraries/Wire/Wire.o
 .text._ZN7TwoWire12i2c_send_ackEv
                0x00000000       0x1e build//Users/Danny/libmaple/libraries/Wire/Wire.o
 .text._ZN7TwoWire11i2c_get_ackEv
                0x00000000       0x36 build//Users/Danny/libmaple/libraries/Wire/Wire.o
 .text._ZN7TwoWire8i2c_stopEv
                0x00000000       0x1e build//Users/Danny/libmaple/libraries/Wire/Wire.o
 .text._ZN7TwoWire9i2c_startEv
                0x00000000       0x16 build//Users/Danny/libmaple/libraries/Wire/Wire.o
 .text._ZN7TwoWire7processEv
                0x00000000       0x98 build//Users/Danny/libmaple/libraries/Wire/Wire.o
 .rodata._ZTV7TwoWire
                0x00000000       0x10 build//Users/Danny/libmaple/libraries/Wire/Wire.o
 .text          0x00000000        0x0 build//Users/Danny/libmaple/libraries/FreeRTOS/utility/croutine.o
 .data          0x00000000        0x0 build//Users/Danny/libmaple/libraries/FreeRTOS/utility/croutine.o
 .bss           0x00000000        0x0 build//Users/Danny/libmaple/libraries/FreeRTOS/utility/croutine.o
 .text.xCoRoutineRemoveFromEventList
                0x00000000       0x34 build//Users/Danny/libmaple/libraries/FreeRTOS/utility/croutine.o
 .text.vCoRoutineSchedule
                0x00000000      0x148 build//Users/Danny/libmaple/libraries/FreeRTOS/utility/croutine.o
 .text.vCoRoutineAddToDelayedList
                0x00000000       0x54 build//Users/Danny/libmaple/libraries/FreeRTOS/utility/croutine.o
 .text.xCoRoutineCreate
                0x00000000       0xc4 build//Users/Danny/libmaple/libraries/FreeRTOS/utility/croutine.o
 .bss.xDelayedCoRoutineList1
                0x00000000       0x14 build//Users/Danny/libmaple/libraries/FreeRTOS/utility/croutine.o
 .bss.xPassedTicks
                0x00000000        0x4 build//Users/Danny/libmaple/libraries/FreeRTOS/utility/croutine.o
 .bss.xPendingReadyCoRoutineList
                0x00000000       0x14 build//Users/Danny/libmaple/libraries/FreeRTOS/utility/croutine.o
 .bss.pxCurrentCoRoutine
                0x00000000        0x4 build//Users/Danny/libmaple/libraries/FreeRTOS/utility/croutine.o
 .bss.xDelayedCoRoutineList2
                0x00000000       0x14 build//Users/Danny/libmaple/libraries/FreeRTOS/utility/croutine.o
 .bss.xCoRoutineTickCount
                0x00000000        0x4 build//Users/Danny/libmaple/libraries/FreeRTOS/utility/croutine.o
 .bss.xLastTickCount
                0x00000000        0x4 build//Users/Danny/libmaple/libraries/FreeRTOS/utility/croutine.o
 .bss.pxDelayedCoRoutineList
                0x00000000        0x4 build//Users/Danny/libmaple/libraries/FreeRTOS/utility/croutine.o
 .bss.pxReadyCoRoutineLists
                0x00000000       0x28 build//Users/Danny/libmaple/libraries/FreeRTOS/utility/croutine.o
 .bss.uxTopCoRoutineReadyPriority
                0x00000000        0x4 build//Users/Danny/libmaple/libraries/FreeRTOS/utility/croutine.o
 .bss.pxOverflowDelayedCoRoutineList
                0x00000000        0x4 build//Users/Danny/libmaple/libraries/FreeRTOS/utility/croutine.o
 .text          0x00000000        0x0 build//Users/Danny/libmaple/libraries/FreeRTOS/utility/heap_2.o
 .data          0x00000000        0x0 build//Users/Danny/libmaple/libraries/FreeRTOS/utility/heap_2.o
 .bss           0x00000000        0x0 build//Users/Danny/libmaple/libraries/FreeRTOS/utility/heap_2.o
 .text.xPortGetFreeHeapSize
                0x00000000        0xc build//Users/Danny/libmaple/libraries/FreeRTOS/utility/heap_2.o
 .text.vPortInitialiseBlocks
                0x00000000        0x2 build//Users/Danny/libmaple/libraries/FreeRTOS/utility/heap_2.o
 .text.vPortFree
                0x00000000       0x40 build//Users/Danny/libmaple/libraries/FreeRTOS/utility/heap_2.o
 .text.pvPortMalloc
                0x00000000       0xb0 build//Users/Danny/libmaple/libraries/FreeRTOS/utility/heap_2.o
 .bss.xHeap     0x00000000     0x2000 build//Users/Danny/libmaple/libraries/FreeRTOS/utility/heap_2.o
 .bss.xStart    0x00000000        0x8 build//Users/Danny/libmaple/libraries/FreeRTOS/utility/heap_2.o
 .data.xFreeBytesRemaining
                0x00000000        0x4 build//Users/Danny/libmaple/libraries/FreeRTOS/utility/heap_2.o
 .bss.xEnd      0x00000000        0x8 build//Users/Danny/libmaple/libraries/FreeRTOS/utility/heap_2.o
 .bss.xHeapHasBeenInitialised.1974
                0x00000000        0x4 build//Users/Danny/libmaple/libraries/FreeRTOS/utility/heap_2.o
 .text          0x00000000        0x0 build//Users/Danny/libmaple/libraries/FreeRTOS/utility/list.o
 .data          0x00000000        0x0 build//Users/Danny/libmaple/libraries/FreeRTOS/utility/list.o
 .bss           0x00000000        0x0 build//Users/Danny/libmaple/libraries/FreeRTOS/utility/list.o
 .text.vListInitialise
                0x00000000       0x16 build//Users/Danny/libmaple/libraries/FreeRTOS/utility/list.o
 .text.vListInitialiseItem
                0x00000000        0x6 build//Users/Danny/libmaple/libraries/FreeRTOS/utility/list.o
 .text.vListInsertEnd
                0x00000000       0x1a build//Users/Danny/libmaple/libraries/FreeRTOS/utility/list.o
 .text.vListInsert
                0x00000000       0x32 build//Users/Danny/libmaple/libraries/FreeRTOS/utility/list.o
 .text.vListRemove
                0x00000000       0x20 build//Users/Danny/libmaple/libraries/FreeRTOS/utility/list.o
 .text          0x00000000        0x0 build//Users/Danny/libmaple/libraries/FreeRTOS/utility/port.o
 .data          0x00000000        0x0 build//Users/Danny/libmaple/libraries/FreeRTOS/utility/port.o
 .bss           0x00000000        0x0 build//Users/Danny/libmaple/libraries/FreeRTOS/utility/port.o
 .text.pxPortInitialiseStack
                0x00000000       0x20 build//Users/Danny/libmaple/libraries/FreeRTOS/utility/port.o
 .text.vPortStartFirstTask
                0x00000000       0x14 build//Users/Danny/libmaple/libraries/FreeRTOS/utility/port.o
 .text.vPortEndScheduler
                0x00000000        0x2 build//Users/Danny/libmaple/libraries/FreeRTOS/utility/port.o
 .text.vPortYieldFromISR
                0x00000000       0x10 build//Users/Danny/libmaple/libraries/FreeRTOS/utility/port.o
 .text.vPortEnterCritical
                0x00000000       0x18 build//Users/Danny/libmaple/libraries/FreeRTOS/utility/port.o
 .text.vPortExitCritical
                0x00000000       0x18 build//Users/Danny/libmaple/libraries/FreeRTOS/utility/port.o
 .text.xPortSysTickHandler
                0x00000000       0x24 build//Users/Danny/libmaple/libraries/FreeRTOS/utility/port.o
 .text.xPortStartScheduler
                0x00000000       0x34 build//Users/Danny/libmaple/libraries/FreeRTOS/utility/port.o
 .rodata.ulKernelPriority
                0x00000000        0x4 build//Users/Danny/libmaple/libraries/FreeRTOS/utility/port.o
 .data.uxCriticalNesting
                0x00000000        0x4 build//Users/Danny/libmaple/libraries/FreeRTOS/utility/port.o
 .text          0x00000000        0x0 build//Users/Danny/libmaple/libraries/FreeRTOS/utility/queue.o
 .data          0x00000000        0x0 build//Users/Danny/libmaple/libraries/FreeRTOS/utility/queue.o
 .bss           0x00000000        0x0 build//Users/Danny/libmaple/libraries/FreeRTOS/utility/queue.o
 .text.uxQueueMessagesWaitingFromISR
                0x00000000        0x4 build//Users/Danny/libmaple/libraries/FreeRTOS/utility/queue.o
 .text.xQueueIsQueueEmptyFromISR
                0x00000000        0xc build//Users/Danny/libmaple/libraries/FreeRTOS/utility/queue.o
 .text.xQueueIsQueueFullFromISR
                0x00000000        0xe build//Users/Danny/libmaple/libraries/FreeRTOS/utility/queue.o
 .text.vQueueDelete
                0x00000000       0x14 build//Users/Danny/libmaple/libraries/FreeRTOS/utility/queue.o
 .text.uxQueueMessagesWaiting
                0x00000000       0x12 build//Users/Danny/libmaple/libraries/FreeRTOS/utility/queue.o
 .text.prvCopyDataFromQueue
                0x00000000       0x28 build//Users/Danny/libmaple/libraries/FreeRTOS/utility/queue.o
 .text.xQueueReceiveFromISR
                0x00000000       0x4c build//Users/Danny/libmaple/libraries/FreeRTOS/utility/queue.o
 .text.prvUnlockQueue
                0x00000000       0x68 build//Users/Danny/libmaple/libraries/FreeRTOS/utility/queue.o
 .text.xQueueGenericReceive
                0x00000000      0x112 build//Users/Danny/libmaple/libraries/FreeRTOS/utility/queue.o
 .text.xQueueTakeMutexRecursive
                0x00000000       0x32 build//Users/Danny/libmaple/libraries/FreeRTOS/utility/queue.o
 .text.prvCopyDataToQueue
                0x00000000       0x58 build//Users/Danny/libmaple/libraries/FreeRTOS/utility/queue.o
 .text.xQueueGenericSendFromISR
                0x00000000       0x50 build//Users/Danny/libmaple/libraries/FreeRTOS/utility/queue.o
 .text.xQueueGenericSend
                0x00000000       0xec build//Users/Danny/libmaple/libraries/FreeRTOS/utility/queue.o
 .text.xQueueGiveMutexRecursive
                0x00000000       0x2c build//Users/Danny/libmaple/libraries/FreeRTOS/utility/queue.o
 .text.xQueueCreateMutex
                0x00000000       0x42 build//Users/Danny/libmaple/libraries/FreeRTOS/utility/queue.o
 .text.xQueueCreate
                0x00000000       0x70 build//Users/Danny/libmaple/libraries/FreeRTOS/utility/queue.o
 .text.xQueueCreateCountingSemaphore
                0x00000000       0x14 build//Users/Danny/libmaple/libraries/FreeRTOS/utility/queue.o
 .text          0x00000000        0x0 build//Users/Danny/libmaple/libraries/FreeRTOS/utility/timers.o
 .data          0x00000000        0x0 build//Users/Danny/libmaple/libraries/FreeRTOS/utility/timers.o
 .bss           0x00000000        0x0 build//Users/Danny/libmaple/libraries/FreeRTOS/utility/timers.o
 .text          0x00000000        0x0 build//Users/Danny/libmaple/libraries/FreeRTOS/utility/tasks.o
 .data          0x00000000        0x0 build//Users/Danny/libmaple/libraries/FreeRTOS/utility/tasks.o
 .bss           0x00000000        0x0 build//Users/Danny/libmaple/libraries/FreeRTOS/utility/tasks.o
 .text.xTaskIsTaskSuspended
                0x00000000       0x28 build//Users/Danny/libmaple/libraries/FreeRTOS/utility/tasks.o
 .text.vTaskSuspendAll
                0x00000000       0x10 build//Users/Danny/libmaple/libraries/FreeRTOS/utility/tasks.o
 .text.xTaskGetTickCountFromISR
                0x00000000       0x1c build//Users/Danny/libmaple/libraries/FreeRTOS/utility/tasks.o
 .text.uxTaskGetNumberOfTasks
                0x00000000        0xc build//Users/Danny/libmaple/libraries/FreeRTOS/utility/tasks.o
 .text.vTaskSetTimeOutState
                0x00000000       0x18 build//Users/Danny/libmaple/libraries/FreeRTOS/utility/tasks.o
 .text.vTaskMissedYield
                0x00000000        0xc build//Users/Danny/libmaple/libraries/FreeRTOS/utility/tasks.o
 .text.xTaskGetCurrentTaskHandle
                0x00000000        0xc build//Users/Danny/libmaple/libraries/FreeRTOS/utility/tasks.o
 .text.vTaskPriorityDisinherit
                0x00000000       0x48 build//Users/Danny/libmaple/libraries/FreeRTOS/utility/tasks.o
 .text.vTaskPriorityInherit
                0x00000000       0x68 build//Users/Danny/libmaple/libraries/FreeRTOS/utility/tasks.o
 .text.xTaskRemoveFromEventList
                0x00000000       0x64 build//Users/Danny/libmaple/libraries/FreeRTOS/utility/tasks.o
 .text.vTaskIncrementTick
                0x00000000       0xd4 build//Users/Danny/libmaple/libraries/FreeRTOS/utility/tasks.o
 .text.xTaskResumeFromISR
                0x00000000       0x6c build//Users/Danny/libmaple/libraries/FreeRTOS/utility/tasks.o
 .text.xTaskCheckForTimeOut
                0x00000000       0x58 build//Users/Danny/libmaple/libraries/FreeRTOS/utility/tasks.o
 .text.ulTaskEndTrace
                0x00000000       0x28 build//Users/Danny/libmaple/libraries/FreeRTOS/utility/tasks.o
 .text.vTaskStartTrace
                0x00000000       0x3c build//Users/Danny/libmaple/libraries/FreeRTOS/utility/tasks.o
 .text.xTaskGetTickCount
                0x00000000       0x18 build//Users/Danny/libmaple/libraries/FreeRTOS/utility/tasks.o
 .text.uxTaskPriorityGet
                0x00000000       0x1c build//Users/Danny/libmaple/libraries/FreeRTOS/utility/tasks.o
 .text.prvAddCurrentTaskToDelayedList
                0x00000000       0x50 build//Users/Danny/libmaple/libraries/FreeRTOS/utility/tasks.o
 .text.vTaskPlaceOnEventList
                0x00000000       0x44 build//Users/Danny/libmaple/libraries/FreeRTOS/utility/tasks.o
 .text.prvListTaskWithinSingleList
                0x00000000       0x7c build//Users/Danny/libmaple/libraries/FreeRTOS/utility/tasks.o
 .text.xTaskResumeAll
                0x00000000       0xc0 build//Users/Danny/libmaple/libraries/FreeRTOS/utility/tasks.o
 .text.vTaskList
                0x00000000       0x9c build//Users/Danny/libmaple/libraries/FreeRTOS/utility/tasks.o
 .text.vTaskResume
                0x00000000       0x68 build//Users/Danny/libmaple/libraries/FreeRTOS/utility/tasks.o
 .text.vTaskSuspend
                0x00000000       0x7c build//Users/Danny/libmaple/libraries/FreeRTOS/utility/tasks.o
 .text.vTaskPrioritySet
                0x00000000       0x98 build//Users/Danny/libmaple/libraries/FreeRTOS/utility/tasks.o
 .text.vTaskDelay
                0x00000000       0x38 build//Users/Danny/libmaple/libraries/FreeRTOS/utility/tasks.o
 .text.vTaskDelayUntil
                0x00000000       0x5c build//Users/Danny/libmaple/libraries/FreeRTOS/utility/tasks.o
 .text.vTaskDelete
                0x00000000       0x74 build//Users/Danny/libmaple/libraries/FreeRTOS/utility/tasks.o
 .text.vTaskEndScheduler
                0x00000000       0x18 build//Users/Danny/libmaple/libraries/FreeRTOS/utility/tasks.o
 .text.prvIdleTask
                0x00000000       0x60 build//Users/Danny/libmaple/libraries/FreeRTOS/utility/tasks.o
 .text.xTaskGenericCreate
                0x00000000      0x1b0 build//Users/Danny/libmaple/libraries/FreeRTOS/utility/tasks.o
 .text.vTaskStartScheduler
                0x00000000       0x4c build//Users/Danny/libmaple/libraries/FreeRTOS/utility/tasks.o
 .bss.xPendingReadyList
                0x00000000       0x14 build//Users/Danny/libmaple/libraries/FreeRTOS/utility/tasks.o
 .bss.uxTasksDeleted
                0x00000000        0x4 build//Users/Danny/libmaple/libraries/FreeRTOS/utility/tasks.o
 .bss.pxOverflowDelayedTaskList
                0x00000000        0x4 build//Users/Danny/libmaple/libraries/FreeRTOS/utility/tasks.o
 .bss.xTasksWaitingTermination
                0x00000000       0x14 build//Users/Danny/libmaple/libraries/FreeRTOS/utility/tasks.o
 .bss.pxDelayedTaskList
                0x00000000        0x4 build//Users/Danny/libmaple/libraries/FreeRTOS/utility/tasks.o
 .data.xNextTaskUnblockTime
                0x00000000        0x4 build//Users/Danny/libmaple/libraries/FreeRTOS/utility/tasks.o
 .bss.xSchedulerRunning
                0x00000000        0x4 build//Users/Danny/libmaple/libraries/FreeRTOS/utility/tasks.o
 .rodata.str1.1
                0x00000000       0x1a build//Users/Danny/libmaple/libraries/FreeRTOS/utility/tasks.o
 .bss.pcStatusString
                0x00000000       0x34 build//Users/Danny/libmaple/libraries/FreeRTOS/utility/tasks.o
 .bss.xSuspendedTaskList
                0x00000000       0x14 build//Users/Danny/libmaple/libraries/FreeRTOS/utility/tasks.o
 .bss.uxCurrentNumberOfTasks
                0x00000000        0x4 build//Users/Danny/libmaple/libraries/FreeRTOS/utility/tasks.o
 .bss.xDelayedTaskList1
                0x00000000       0x14 build//Users/Danny/libmaple/libraries/FreeRTOS/utility/tasks.o
 .bss.xDelayedTaskList2
                0x00000000       0x14 build//Users/Danny/libmaple/libraries/FreeRTOS/utility/tasks.o
 .bss.uxTaskNumber
                0x00000000        0x4 build//Users/Danny/libmaple/libraries/FreeRTOS/utility/tasks.o
 .bss.uxMissedTicks
                0x00000000        0x4 build//Users/Danny/libmaple/libraries/FreeRTOS/utility/tasks.o
 .bss.pcTraceBufferStart
                0x00000000        0x4 build//Users/Danny/libmaple/libraries/FreeRTOS/utility/tasks.o
 .bss.xNumOfOverflows
                0x00000000        0x4 build//Users/Danny/libmaple/libraries/FreeRTOS/utility/tasks.o
 .bss.uxTopUsedPriority
                0x00000000        0x4 build//Users/Danny/libmaple/libraries/FreeRTOS/utility/tasks.o
 .text          0x00000000        0x0 build//Users/Danny/libmaple/libraries/FreeRTOS/MapleFreeRTOS.o
 .data          0x00000000        0x0 build//Users/Danny/libmaple/libraries/FreeRTOS/MapleFreeRTOS.o
 .bss           0x00000000        0x0 build//Users/Danny/libmaple/libraries/FreeRTOS/MapleFreeRTOS.o
 .text          0x00000000        0x0 build//Users/Danny/Maple_Workbench/SD/libSD/SD.o
 .data          0x00000000        0x0 build//Users/Danny/Maple_Workbench/SD/libSD/SD.o
 .bss           0x00000000        0x0 build//Users/Danny/Maple_Workbench/SD/libSD/SD.o
 .text._ZN6SD_DevC2Ev
                0x00000000        0x2 build//Users/Danny/Maple_Workbench/SD/libSD/SD.o
 .text._ZN6SD_DevD2Ev
                0x00000000        0x2 build//Users/Danny/Maple_Workbench/SD/libSD/SD.o
 .text._ZN6SD_Dev10writeBlockEmPc
                0x00000000       0xba build//Users/Danny/Maple_Workbench/SD/libSD/SD.o
 .rodata.baudSlow
                0x00000000        0x1 build//Users/Danny/Maple_Workbench/SD/libSD/SD.o
 .rodata.baudFull
                0x00000000        0x1 build//Users/Danny/Maple_Workbench/SD/libSD/SD.o
 .text          0x00000000        0x0 build//Users/Danny/Maple_Workbench/SD/libFAT/FAT.o
 .data          0x00000000        0x0 build//Users/Danny/Maple_Workbench/SD/libFAT/FAT.o
 .bss           0x00000000        0x0 build//Users/Danny/Maple_Workbench/SD/libFAT/FAT.o
 .text._ZN9PartitionC2Ev
                0x00000000        0x2 build//Users/Danny/Maple_Workbench/SD/libFAT/FAT.o
 .text._ZN9PartitionD2Ev
                0x00000000        0x2 build//Users/Danny/Maple_Workbench/SD/libFAT/FAT.o
 .text._ZN7FileBoxC2EP9Partition
                0x00000000        0x4 build//Users/Danny/Maple_Workbench/SD/libFAT/FAT.o
 .text._ZN7FileBoxD2Ev
                0x00000000        0x2 build//Users/Danny/Maple_Workbench/SD/libFAT/FAT.o
 .text._ZN7FileBox14getNextClusterEm
                0x00000000       0x4e build//Users/Danny/Maple_Workbench/SD/libFAT/FAT.o
 .text._ZN7FileBox7addLinkEv
                0x00000000       0x1c build//Users/Danny/Maple_Workbench/SD/libFAT/FAT.o
 .text._ZN7FileBox15setClusterChainEv
                0x00000000       0x90 build//Users/Danny/Maple_Workbench/SD/libFAT/FAT.o
 .text._ZN7FileBox15getClusterChainEv
                0x00000000       0x20 build//Users/Danny/Maple_Workbench/SD/libFAT/FAT.o
 .text          0x00000000        0x0 build//Users/Danny/Maple_Workbench/SD/main.o
 .data          0x00000000        0x0 build//Users/Danny/Maple_Workbench/SD/main.o
 .bss           0x00000000        0x0 build//Users/Danny/Maple_Workbench/SD/main.o
 .rodata.mode   0x00000000        0x1 build//Users/Danny/Maple_Workbench/SD/main.o
 .rodata.flags  0x00000000        0x2 build//Users/Danny/Maple_Workbench/SD/main.o
 .text          0x00000000        0x0 build/main.o
 .data          0x00000000        0x0 build/main.o
 .bss           0x00000000        0x0 build/main.o
 .text          0x00000000        0x0 /Users/Danny/libmaple/arm/bin/../lib/gcc/arm-none-eabi/4.4.1/../../../../arm-none-eabi/lib/thumb2/libstdc++.a(atexit_arm.o)
 .data          0x00000000        0x0 /Users/Danny/libmaple/arm/bin/../lib/gcc/arm-none-eabi/4.4.1/../../../../arm-none-eabi/lib/thumb2/libstdc++.a(atexit_arm.o)
 .bss           0x00000000        0x0 /Users/Danny/libmaple/arm/bin/../lib/gcc/arm-none-eabi/4.4.1/../../../../arm-none-eabi/lib/thumb2/libstdc++.a(atexit_arm.o)
 .ARM.extab.text.__aeabi_atexit
                0x00000000        0x0 /Users/Danny/libmaple/arm/bin/../lib/gcc/arm-none-eabi/4.4.1/../../../../arm-none-eabi/lib/thumb2/libstdc++.a(atexit_arm.o)
 .text          0x00000000      0x370 /Users/Danny/libmaple/arm/bin/../lib/gcc/arm-none-eabi/4.4.1/thumb2/libgcc.a(_arm_addsubdf3.o)
 .data          0x00000000        0x0 /Users/Danny/libmaple/arm/bin/../lib/gcc/arm-none-eabi/4.4.1/thumb2/libgcc.a(_arm_addsubdf3.o)
 .bss           0x00000000        0x0 /Users/Danny/libmaple/arm/bin/../lib/gcc/arm-none-eabi/4.4.1/thumb2/libgcc.a(_arm_addsubdf3.o)
 .text          0x00000000      0x424 /Users/Danny/libmaple/arm/bin/../lib/gcc/arm-none-eabi/4.4.1/thumb2/libgcc.a(_arm_muldivdf3.o)
 .data          0x00000000        0x0 /Users/Danny/libmaple/arm/bin/../lib/gcc/arm-none-eabi/4.4.1/thumb2/libgcc.a(_arm_muldivdf3.o)
 .bss           0x00000000        0x0 /Users/Danny/libmaple/arm/bin/../lib/gcc/arm-none-eabi/4.4.1/thumb2/libgcc.a(_arm_muldivdf3.o)
 .text          0x00000000      0x110 /Users/Danny/libmaple/arm/bin/../lib/gcc/arm-none-eabi/4.4.1/thumb2/libgcc.a(_arm_cmpdf2.o)
 .data          0x00000000        0x0 /Users/Danny/libmaple/arm/bin/../lib/gcc/arm-none-eabi/4.4.1/thumb2/libgcc.a(_arm_cmpdf2.o)
 .bss           0x00000000        0x0 /Users/Danny/libmaple/arm/bin/../lib/gcc/arm-none-eabi/4.4.1/thumb2/libgcc.a(_arm_cmpdf2.o)
 .text          0x00000000       0x50 /Users/Danny/libmaple/arm/bin/../lib/gcc/arm-none-eabi/4.4.1/thumb2/libgcc.a(_arm_fixdfsi.o)
 .data          0x00000000        0x0 /Users/Danny/libmaple/arm/bin/../lib/gcc/arm-none-eabi/4.4.1/thumb2/libgcc.a(_arm_fixdfsi.o)
 .bss           0x00000000        0x0 /Users/Danny/libmaple/arm/bin/../lib/gcc/arm-none-eabi/4.4.1/thumb2/libgcc.a(_arm_fixdfsi.o)
 .data          0x00000000        0x0 /Users/Danny/libmaple/arm/bin/../lib/gcc/arm-none-eabi/4.4.1/thumb2/libgcc.a(_aeabi_uldivmod.o)
 .bss           0x00000000        0x0 /Users/Danny/libmaple/arm/bin/../lib/gcc/arm-none-eabi/4.4.1/thumb2/libgcc.a(_aeabi_uldivmod.o)
 .text          0x00000000       0x3c /Users/Danny/libmaple/arm/bin/../lib/gcc/arm-none-eabi/4.4.1/thumb2/libgcc.a(_fixdfdi.o)
 .data          0x00000000        0x0 /Users/Danny/libmaple/arm/bin/../lib/gcc/arm-none-eabi/4.4.1/thumb2/libgcc.a(_fixdfdi.o)
 .bss           0x00000000        0x0 /Users/Danny/libmaple/arm/bin/../lib/gcc/arm-none-eabi/4.4.1/thumb2/libgcc.a(_fixdfdi.o)
 .text          0x00000000       0x44 /Users/Danny/libmaple/arm/bin/../lib/gcc/arm-none-eabi/4.4.1/thumb2/libgcc.a(_fixunsdfdi.o)
 .data          0x00000000        0x0 /Users/Danny/libmaple/arm/bin/../lib/gcc/arm-none-eabi/4.4.1/thumb2/libgcc.a(_fixunsdfdi.o)
 .bss           0x00000000        0x0 /Users/Danny/libmaple/arm/bin/../lib/gcc/arm-none-eabi/4.4.1/thumb2/libgcc.a(_fixunsdfdi.o)
 .data          0x00000000        0x0 /Users/Danny/libmaple/arm/bin/../lib/gcc/arm-none-eabi/4.4.1/thumb2/libgcc.a(bpabi.o)
 .bss           0x00000000        0x0 /Users/Danny/libmaple/arm/bin/../lib/gcc/arm-none-eabi/4.4.1/thumb2/libgcc.a(bpabi.o)
 .data          0x00000000        0x0 /Users/Danny/libmaple/arm/bin/../lib/gcc/arm-none-eabi/4.4.1/thumb2/libgcc.a(_dvmd_tls.o)
 .bss           0x00000000        0x0 /Users/Danny/libmaple/arm/bin/../lib/gcc/arm-none-eabi/4.4.1/thumb2/libgcc.a(_dvmd_tls.o)
 .text          0x00000000       0x40 /Users/Danny/libmaple/arm/bin/../lib/gcc/arm-none-eabi/4.4.1/thumb2/libgcc.a(_arm_fixunsdfsi.o)
 .data          0x00000000        0x0 /Users/Danny/libmaple/arm/bin/../lib/gcc/arm-none-eabi/4.4.1/thumb2/libgcc.a(_arm_fixunsdfsi.o)
 .bss           0x00000000        0x0 /Users/Danny/libmaple/arm/bin/../lib/gcc/arm-none-eabi/4.4.1/thumb2/libgcc.a(_arm_fixunsdfsi.o)
 .data          0x00000000        0x0 /Users/Danny/libmaple/arm/bin/../lib/gcc/arm-none-eabi/4.4.1/thumb2/libgcc.a(_divdi3.o)
 .bss           0x00000000        0x0 /Users/Danny/libmaple/arm/bin/../lib/gcc/arm-none-eabi/4.4.1/thumb2/libgcc.a(_divdi3.o)
 .ARM.extab     0x00000000        0x0 /Users/Danny/libmaple/arm/bin/../lib/gcc/arm-none-eabi/4.4.1/thumb2/libgcc.a(_divdi3.o)
 .data          0x00000000        0x0 /Users/Danny/libmaple/arm/bin/../lib/gcc/arm-none-eabi/4.4.1/thumb2/libgcc.a(_udivdi3.o)
 .bss           0x00000000        0x0 /Users/Danny/libmaple/arm/bin/../lib/gcc/arm-none-eabi/4.4.1/thumb2/libgcc.a(_udivdi3.o)
 .ARM.extab     0x00000000        0x0 /Users/Danny/libmaple/arm/bin/../lib/gcc/arm-none-eabi/4.4.1/thumb2/libgcc.a(_udivdi3.o)
 .data          0x00000000        0x0 /Users/Danny/libmaple/arm/bin/../lib/gcc/arm-none-eabi/4.4.1/thumb2/libgcc.a(_udivsi3.o)
 .bss           0x00000000        0x0 /Users/Danny/libmaple/arm/bin/../lib/gcc/arm-none-eabi/4.4.1/thumb2/libgcc.a(_udivsi3.o)
 .text          0x00000000        0x0 /Users/Danny/libmaple/arm/bin/../lib/gcc/arm-none-eabi/4.4.1/../../../../arm-none-eabi/lib/thumb2/libc.a(lib_a-cxa_atexit.o)
 .data          0x00000000        0x0 /Users/Danny/libmaple/arm/bin/../lib/gcc/arm-none-eabi/4.4.1/../../../../arm-none-eabi/lib/thumb2/libc.a(lib_a-cxa_atexit.o)
 .bss           0x00000000        0x0 /Users/Danny/libmaple/arm/bin/../lib/gcc/arm-none-eabi/4.4.1/../../../../arm-none-eabi/lib/thumb2/libc.a(lib_a-cxa_atexit.o)
 .text          0x00000000        0x0 /Users/Danny/libmaple/arm/bin/../lib/gcc/arm-none-eabi/4.4.1/../../../../arm-none-eabi/lib/thumb2/libc.a(lib_a-errno.o)
 .data          0x00000000        0x0 /Users/Danny/libmaple/arm/bin/../lib/gcc/arm-none-eabi/4.4.1/../../../../arm-none-eabi/lib/thumb2/libc.a(lib_a-errno.o)
 .bss           0x00000000        0x0 /Users/Danny/libmaple/arm/bin/../lib/gcc/arm-none-eabi/4.4.1/../../../../arm-none-eabi/lib/thumb2/libc.a(lib_a-errno.o)
 .text          0x00000000        0x0 /Users/Danny/libmaple/arm/bin/../lib/gcc/arm-none-eabi/4.4.1/../../../../arm-none-eabi/lib/thumb2/libc.a(lib_a-impure.o)
 .data          0x00000000        0x0 /Users/Danny/libmaple/arm/bin/../lib/gcc/arm-none-eabi/4.4.1/../../../../arm-none-eabi/lib/thumb2/libc.a(lib_a-impure.o)
 .bss           0x00000000        0x0 /Users/Danny/libmaple/arm/bin/../lib/gcc/arm-none-eabi/4.4.1/../../../../arm-none-eabi/lib/thumb2/libc.a(lib_a-impure.o)
 .text          0x00000000        0x0 /Users/Danny/libmaple/arm/bin/../lib/gcc/arm-none-eabi/4.4.1/../../../../arm-none-eabi/lib/thumb2/libc.a(lib_a-init.o)
 .data          0x00000000        0x0 /Users/Danny/libmaple/arm/bin/../lib/gcc/arm-none-eabi/4.4.1/../../../../arm-none-eabi/lib/thumb2/libc.a(lib_a-init.o)
 .bss           0x00000000        0x0 /Users/Danny/libmaple/arm/bin/../lib/gcc/arm-none-eabi/4.4.1/../../../../arm-none-eabi/lib/thumb2/libc.a(lib_a-init.o)
 .text          0x00000000        0x0 /Users/Danny/libmaple/arm/bin/../lib/gcc/arm-none-eabi/4.4.1/../../../../arm-none-eabi/lib/thumb2/libc.a(lib_a-malloc.o)
 .data          0x00000000        0x0 /Users/Danny/libmaple/arm/bin/../lib/gcc/arm-none-eabi/4.4.1/../../../../arm-none-eabi/lib/thumb2/libc.a(lib_a-malloc.o)
 .bss           0x00000000        0x0 /Users/Danny/libmaple/arm/bin/../lib/gcc/arm-none-eabi/4.4.1/../../../../arm-none-eabi/lib/thumb2/libc.a(lib_a-malloc.o)
 .text.free     0x00000000       0x10 /Users/Danny/libmaple/arm/bin/../lib/gcc/arm-none-eabi/4.4.1/../../../../arm-none-eabi/lib/thumb2/libc.a(lib_a-malloc.o)
 .text          0x00000000        0x0 /Users/Danny/libmaple/arm/bin/../lib/gcc/arm-none-eabi/4.4.1/../../../../arm-none-eabi/lib/thumb2/libc.a(lib_a-mallocr.o)
 .data          0x00000000        0x0 /Users/Danny/libmaple/arm/bin/../lib/gcc/arm-none-eabi/4.4.1/../../../../arm-none-eabi/lib/thumb2/libc.a(lib_a-mallocr.o)
 .bss           0x00000000        0x0 /Users/Danny/libmaple/arm/bin/../lib/gcc/arm-none-eabi/4.4.1/../../../../arm-none-eabi/lib/thumb2/libc.a(lib_a-mallocr.o)
 .text          0x00000000        0x0 /Users/Danny/libmaple/arm/bin/../lib/gcc/arm-none-eabi/4.4.1/../../../../arm-none-eabi/lib/thumb2/libc.a(lib_a-memcmp.o)
 .data          0x00000000        0x0 /Users/Danny/libmaple/arm/bin/../lib/gcc/arm-none-eabi/4.4.1/../../../../arm-none-eabi/lib/thumb2/libc.a(lib_a-memcmp.o)
 .bss           0x00000000        0x0 /Users/Danny/libmaple/arm/bin/../lib/gcc/arm-none-eabi/4.4.1/../../../../arm-none-eabi/lib/thumb2/libc.a(lib_a-memcmp.o)
 .text          0x00000000        0x0 /Users/Danny/libmaple/arm/bin/../lib/gcc/arm-none-eabi/4.4.1/../../../../arm-none-eabi/lib/thumb2/libc.a(lib_a-memcpy.o)
 .data          0x00000000        0x0 /Users/Danny/libmaple/arm/bin/../lib/gcc/arm-none-eabi/4.4.1/../../../../arm-none-eabi/lib/thumb2/libc.a(lib_a-memcpy.o)
 .bss           0x00000000        0x0 /Users/Danny/libmaple/arm/bin/../lib/gcc/arm-none-eabi/4.4.1/../../../../arm-none-eabi/lib/thumb2/libc.a(lib_a-memcpy.o)
 .text.memcpy   0x00000000       0x1a /Users/Danny/libmaple/arm/bin/../lib/gcc/arm-none-eabi/4.4.1/../../../../arm-none-eabi/lib/thumb2/libc.a(lib_a-memcpy.o)
 .text          0x00000000        0x0 /Users/Danny/libmaple/arm/bin/../lib/gcc/arm-none-eabi/4.4.1/../../../../arm-none-eabi/lib/thumb2/libc.a(lib_a-memset.o)
 .data          0x00000000        0x0 /Users/Danny/libmaple/arm/bin/../lib/gcc/arm-none-eabi/4.4.1/../../../../arm-none-eabi/lib/thumb2/libc.a(lib_a-memset.o)
 .bss           0x00000000        0x0 /Users/Danny/libmaple/arm/bin/../lib/gcc/arm-none-eabi/4.4.1/../../../../arm-none-eabi/lib/thumb2/libc.a(lib_a-memset.o)
 .text.memset   0x00000000       0x12 /Users/Danny/libmaple/arm/bin/../lib/gcc/arm-none-eabi/4.4.1/../../../../arm-none-eabi/lib/thumb2/libc.a(lib_a-memset.o)
 .text          0x00000000        0x0 /Users/Danny/libmaple/arm/bin/../lib/gcc/arm-none-eabi/4.4.1/../../../../arm-none-eabi/lib/thumb2/libc.a(lib_a-mlock.o)
 .data          0x00000000        0x0 /Users/Danny/libmaple/arm/bin/../lib/gcc/arm-none-eabi/4.4.1/../../../../arm-none-eabi/lib/thumb2/libc.a(lib_a-mlock.o)
 .bss           0x00000000        0x0 /Users/Danny/libmaple/arm/bin/../lib/gcc/arm-none-eabi/4.4.1/../../../../arm-none-eabi/lib/thumb2/libc.a(lib_a-mlock.o)
 .text          0x00000000        0x0 /Users/Danny/libmaple/arm/bin/../lib/gcc/arm-none-eabi/4.4.1/../../../../arm-none-eabi/lib/thumb2/libc.a(lib_a-rand.o)
 .data          0x00000000        0x0 /Users/Danny/libmaple/arm/bin/../lib/gcc/arm-none-eabi/4.4.1/../../../../arm-none-eabi/lib/thumb2/libc.a(lib_a-rand.o)
 .bss           0x00000000        0x0 /Users/Danny/libmaple/arm/bin/../lib/gcc/arm-none-eabi/4.4.1/../../../../arm-none-eabi/lib/thumb2/libc.a(lib_a-rand.o)
 .text.rand     0x00000000       0x84 /Users/Danny/libmaple/arm/bin/../lib/gcc/arm-none-eabi/4.4.1/../../../../arm-none-eabi/lib/thumb2/libc.a(lib_a-rand.o)
 .text.srand    0x00000000       0x5c /Users/Danny/libmaple/arm/bin/../lib/gcc/arm-none-eabi/4.4.1/../../../../arm-none-eabi/lib/thumb2/libc.a(lib_a-rand.o)
 .text          0x00000000        0x0 /Users/Danny/libmaple/arm/bin/../lib/gcc/arm-none-eabi/4.4.1/../../../../arm-none-eabi/lib/thumb2/libc.a(lib_a-sbrkr.o)
 .data          0x00000000        0x0 /Users/Danny/libmaple/arm/bin/../lib/gcc/arm-none-eabi/4.4.1/../../../../arm-none-eabi/lib/thumb2/libc.a(lib_a-sbrkr.o)
 .bss           0x00000000        0x0 /Users/Danny/libmaple/arm/bin/../lib/gcc/arm-none-eabi/4.4.1/../../../../arm-none-eabi/lib/thumb2/libc.a(lib_a-sbrkr.o)
 .text          0x00000000        0x0 /Users/Danny/libmaple/arm/bin/../lib/gcc/arm-none-eabi/4.4.1/../../../../arm-none-eabi/lib/thumb2/libc.a(lib_a-sprintf.o)
 .data          0x00000000        0x0 /Users/Danny/libmaple/arm/bin/../lib/gcc/arm-none-eabi/4.4.1/../../../../arm-none-eabi/lib/thumb2/libc.a(lib_a-sprintf.o)
 .bss           0x00000000        0x0 /Users/Danny/libmaple/arm/bin/../lib/gcc/arm-none-eabi/4.4.1/../../../../arm-none-eabi/lib/thumb2/libc.a(lib_a-sprintf.o)
 .text.sprintf  0x00000000       0x48 /Users/Danny/libmaple/arm/bin/../lib/gcc/arm-none-eabi/4.4.1/../../../../arm-none-eabi/lib/thumb2/libc.a(lib_a-sprintf.o)
 .text._sprintf_r
                0x00000000       0x40 /Users/Danny/libmaple/arm/bin/../lib/gcc/arm-none-eabi/4.4.1/../../../../arm-none-eabi/lib/thumb2/libc.a(lib_a-sprintf.o)
 .text          0x00000000        0x0 /Users/Danny/libmaple/arm/bin/../lib/gcc/arm-none-eabi/4.4.1/../../../../arm-none-eabi/lib/thumb2/libc.a(lib_a-strcat.o)
 .data          0x00000000        0x0 /Users/Danny/libmaple/arm/bin/../lib/gcc/arm-none-eabi/4.4.1/../../../../arm-none-eabi/lib/thumb2/libc.a(lib_a-strcat.o)
 .bss           0x00000000        0x0 /Users/Danny/libmaple/arm/bin/../lib/gcc/arm-none-eabi/4.4.1/../../../../arm-none-eabi/lib/thumb2/libc.a(lib_a-strcat.o)
 .text.strcat   0x00000000       0x1a /Users/Danny/libmaple/arm/bin/../lib/gcc/arm-none-eabi/4.4.1/../../../../arm-none-eabi/lib/thumb2/libc.a(lib_a-strcat.o)
 .text          0x00000000        0x0 /Users/Danny/libmaple/arm/bin/../lib/gcc/arm-none-eabi/4.4.1/../../../../arm-none-eabi/lib/thumb2/libc.a(lib_a-strlen.o)
 .data          0x00000000        0x0 /Users/Danny/libmaple/arm/bin/../lib/gcc/arm-none-eabi/4.4.1/../../../../arm-none-eabi/lib/thumb2/libc.a(lib_a-strlen.o)
 .bss           0x00000000        0x0 /Users/Danny/libmaple/arm/bin/../lib/gcc/arm-none-eabi/4.4.1/../../../../arm-none-eabi/lib/thumb2/libc.a(lib_a-strlen.o)
 .text          0x00000000        0x0 /Users/Danny/libmaple/arm/bin/../lib/gcc/arm-none-eabi/4.4.1/../../../../arm-none-eabi/lib/thumb2/libc.a(lib_a-strncpy.o)
 .data          0x00000000        0x0 /Users/Danny/libmaple/arm/bin/../lib/gcc/arm-none-eabi/4.4.1/../../../../arm-none-eabi/lib/thumb2/libc.a(lib_a-strncpy.o)
 .bss           0x00000000        0x0 /Users/Danny/libmaple/arm/bin/../lib/gcc/arm-none-eabi/4.4.1/../../../../arm-none-eabi/lib/thumb2/libc.a(lib_a-strncpy.o)
 .text.strncpy  0x00000000       0x30 /Users/Danny/libmaple/arm/bin/../lib/gcc/arm-none-eabi/4.4.1/../../../../arm-none-eabi/lib/thumb2/libc.a(lib_a-strncpy.o)
 .text          0x00000000        0x0 /Users/Danny/libmaple/arm/bin/../lib/gcc/arm-none-eabi/4.4.1/../../../../arm-none-eabi/lib/thumb2/libc.a(lib_a-svfprintf.o)
 .data          0x00000000        0x0 /Users/Danny/libmaple/arm/bin/../lib/gcc/arm-none-eabi/4.4.1/../../../../arm-none-eabi/lib/thumb2/libc.a(lib_a-svfprintf.o)
 .bss           0x00000000        0x0 /Users/Danny/libmaple/arm/bin/../lib/gcc/arm-none-eabi/4.4.1/../../../../arm-none-eabi/lib/thumb2/libc.a(lib_a-svfprintf.o)
 .text.__sprint_r
                0x00000000       0xf4 /Users/Danny/libmaple/arm/bin/../lib/gcc/arm-none-eabi/4.4.1/../../../../arm-none-eabi/lib/thumb2/libc.a(lib_a-svfprintf.o)
 .text._svfprintf_r
                0x00000000      0xf00 /Users/Danny/libmaple/arm/bin/../lib/gcc/arm-none-eabi/4.4.1/../../../../arm-none-eabi/lib/thumb2/libc.a(lib_a-svfprintf.o)
 .rodata.zeroes.3596
                0x00000000       0x10 /Users/Danny/libmaple/arm/bin/../lib/gcc/arm-none-eabi/4.4.1/../../../../arm-none-eabi/lib/thumb2/libc.a(lib_a-svfprintf.o)
 .rodata.str1.1
                0x00000000       0x34 /Users/Danny/libmaple/arm/bin/../lib/gcc/arm-none-eabi/4.4.1/../../../../arm-none-eabi/lib/thumb2/libc.a(lib_a-svfprintf.o)
 .rodata.blanks.3595
                0x00000000       0x10 /Users/Danny/libmaple/arm/bin/../lib/gcc/arm-none-eabi/4.4.1/../../../../arm-none-eabi/lib/thumb2/libc.a(lib_a-svfprintf.o)
 .text          0x00000000        0x0 /Users/Danny/libmaple/arm/bin/../lib/gcc/arm-none-eabi/4.4.1/../../../../arm-none-eabi/lib/thumb2/libc.a(lib_a-__atexit.o)
 .data          0x00000000        0x0 /Users/Danny/libmaple/arm/bin/../lib/gcc/arm-none-eabi/4.4.1/../../../../arm-none-eabi/lib/thumb2/libc.a(lib_a-__atexit.o)
 .bss           0x00000000        0x0 /Users/Danny/libmaple/arm/bin/../lib/gcc/arm-none-eabi/4.4.1/../../../../arm-none-eabi/lib/thumb2/libc.a(lib_a-__atexit.o)
 .text          0x00000000        0x0 /Users/Danny/libmaple/arm/bin/../lib/gcc/arm-none-eabi/4.4.1/../../../../arm-none-eabi/lib/thumb2/libc.a(lib_a-dtoa.o)
 .data          0x00000000        0x0 /Users/Danny/libmaple/arm/bin/../lib/gcc/arm-none-eabi/4.4.1/../../../../arm-none-eabi/lib/thumb2/libc.a(lib_a-dtoa.o)
 .bss           0x00000000        0x0 /Users/Danny/libmaple/arm/bin/../lib/gcc/arm-none-eabi/4.4.1/../../../../arm-none-eabi/lib/thumb2/libc.a(lib_a-dtoa.o)
 .text.quorem   0x00000000      0x116 /Users/Danny/libmaple/arm/bin/../lib/gcc/arm-none-eabi/4.4.1/../../../../arm-none-eabi/lib/thumb2/libc.a(lib_a-dtoa.o)
 .text._dtoa_r  0x00000000      0xb88 /Users/Danny/libmaple/arm/bin/../lib/gcc/arm-none-eabi/4.4.1/../../../../arm-none-eabi/lib/thumb2/libc.a(lib_a-dtoa.o)
 .rodata.str1.1
                0x00000000        0xf /Users/Danny/libmaple/arm/bin/../lib/gcc/arm-none-eabi/4.4.1/../../../../arm-none-eabi/lib/thumb2/libc.a(lib_a-dtoa.o)
 .text          0x00000000        0x0 /Users/Danny/libmaple/arm/bin/../lib/gcc/arm-none-eabi/4.4.1/../../../../arm-none-eabi/lib/thumb2/libc.a(lib_a-freer.o)
 .data          0x00000000        0x0 /Users/Danny/libmaple/arm/bin/../lib/gcc/arm-none-eabi/4.4.1/../../../../arm-none-eabi/lib/thumb2/libc.a(lib_a-freer.o)
 .bss           0x00000000        0x0 /Users/Danny/libmaple/arm/bin/../lib/gcc/arm-none-eabi/4.4.1/../../../../arm-none-eabi/lib/thumb2/libc.a(lib_a-freer.o)
 .text          0x00000000        0x0 /Users/Danny/libmaple/arm/bin/../lib/gcc/arm-none-eabi/4.4.1/../../../../arm-none-eabi/lib/thumb2/libc.a(lib_a-locale.o)
 .data          0x00000000        0x0 /Users/Danny/libmaple/arm/bin/../lib/gcc/arm-none-eabi/4.4.1/../../../../arm-none-eabi/lib/thumb2/libc.a(lib_a-locale.o)
 .bss           0x00000000        0x0 /Users/Danny/libmaple/arm/bin/../lib/gcc/arm-none-eabi/4.4.1/../../../../arm-none-eabi/lib/thumb2/libc.a(lib_a-locale.o)
 .text.__locale_charset
                0x00000000        0xc /Users/Danny/libmaple/arm/bin/../lib/gcc/arm-none-eabi/4.4.1/../../../../arm-none-eabi/lib/thumb2/libc.a(lib_a-locale.o)
 .text._localeconv_r
                0x00000000        0x8 /Users/Danny/libmaple/arm/bin/../lib/gcc/arm-none-eabi/4.4.1/../../../../arm-none-eabi/lib/thumb2/libc.a(lib_a-locale.o)
 .text.localeconv
                0x00000000        0x8 /Users/Danny/libmaple/arm/bin/../lib/gcc/arm-none-eabi/4.4.1/../../../../arm-none-eabi/lib/thumb2/libc.a(lib_a-locale.o)
 .text._setlocale_r
                0x00000000       0x38 /Users/Danny/libmaple/arm/bin/../lib/gcc/arm-none-eabi/4.4.1/../../../../arm-none-eabi/lib/thumb2/libc.a(lib_a-locale.o)
 .text.setlocale
                0x00000000       0x14 /Users/Danny/libmaple/arm/bin/../lib/gcc/arm-none-eabi/4.4.1/../../../../arm-none-eabi/lib/thumb2/libc.a(lib_a-locale.o)
 .rodata.charset
                0x00000000        0x4 /Users/Danny/libmaple/arm/bin/../lib/gcc/arm-none-eabi/4.4.1/../../../../arm-none-eabi/lib/thumb2/libc.a(lib_a-locale.o)
 .bss.__nlocale_changed
                0x00000000        0x4 /Users/Danny/libmaple/arm/bin/../lib/gcc/arm-none-eabi/4.4.1/../../../../arm-none-eabi/lib/thumb2/libc.a(lib_a-locale.o)
 .bss.__mlocale_changed
                0x00000000        0x4 /Users/Danny/libmaple/arm/bin/../lib/gcc/arm-none-eabi/4.4.1/../../../../arm-none-eabi/lib/thumb2/libc.a(lib_a-locale.o)
 .rodata.lconv  0x00000000       0x30 /Users/Danny/libmaple/arm/bin/../lib/gcc/arm-none-eabi/4.4.1/../../../../arm-none-eabi/lib/thumb2/libc.a(lib_a-locale.o)
 .bss._PathLocale
                0x00000000        0x4 /Users/Danny/libmaple/arm/bin/../lib/gcc/arm-none-eabi/4.4.1/../../../../arm-none-eabi/lib/thumb2/libc.a(lib_a-locale.o)
 .rodata.str1.1
                0x00000000       0x10 /Users/Danny/libmaple/arm/bin/../lib/gcc/arm-none-eabi/4.4.1/../../../../arm-none-eabi/lib/thumb2/libc.a(lib_a-locale.o)
 .data.__lc_ctype
                0x00000000        0xc /Users/Danny/libmaple/arm/bin/../lib/gcc/arm-none-eabi/4.4.1/../../../../arm-none-eabi/lib/thumb2/libc.a(lib_a-locale.o)
 .data.__mb_cur_max
                0x00000000        0x4 /Users/Danny/libmaple/arm/bin/../lib/gcc/arm-none-eabi/4.4.1/../../../../arm-none-eabi/lib/thumb2/libc.a(lib_a-locale.o)
 .text          0x00000000        0x0 /Users/Danny/libmaple/arm/bin/../lib/gcc/arm-none-eabi/4.4.1/../../../../arm-none-eabi/lib/thumb2/libc.a(lib_a-memchr.o)
 .data          0x00000000        0x0 /Users/Danny/libmaple/arm/bin/../lib/gcc/arm-none-eabi/4.4.1/../../../../arm-none-eabi/lib/thumb2/libc.a(lib_a-memchr.o)
 .bss           0x00000000        0x0 /Users/Danny/libmaple/arm/bin/../lib/gcc/arm-none-eabi/4.4.1/../../../../arm-none-eabi/lib/thumb2/libc.a(lib_a-memchr.o)
 .text.memchr   0x00000000       0x16 /Users/Danny/libmaple/arm/bin/../lib/gcc/arm-none-eabi/4.4.1/../../../../arm-none-eabi/lib/thumb2/libc.a(lib_a-memchr.o)
 .text          0x00000000        0x0 /Users/Danny/libmaple/arm/bin/../lib/gcc/arm-none-eabi/4.4.1/../../../../arm-none-eabi/lib/thumb2/libc.a(lib_a-memmove.o)
 .data          0x00000000        0x0 /Users/Danny/libmaple/arm/bin/../lib/gcc/arm-none-eabi/4.4.1/../../../../arm-none-eabi/lib/thumb2/libc.a(lib_a-memmove.o)
 .bss           0x00000000        0x0 /Users/Danny/libmaple/arm/bin/../lib/gcc/arm-none-eabi/4.4.1/../../../../arm-none-eabi/lib/thumb2/libc.a(lib_a-memmove.o)
 .text.memmove  0x00000000       0x3a /Users/Danny/libmaple/arm/bin/../lib/gcc/arm-none-eabi/4.4.1/../../../../arm-none-eabi/lib/thumb2/libc.a(lib_a-memmove.o)
 .text          0x00000000        0x0 /Users/Danny/libmaple/arm/bin/../lib/gcc/arm-none-eabi/4.4.1/../../../../arm-none-eabi/lib/thumb2/libc.a(lib_a-mprec.o)
 .data          0x00000000        0x0 /Users/Danny/libmaple/arm/bin/../lib/gcc/arm-none-eabi/4.4.1/../../../../arm-none-eabi/lib/thumb2/libc.a(lib_a-mprec.o)
 .bss           0x00000000        0x0 /Users/Danny/libmaple/arm/bin/../lib/gcc/arm-none-eabi/4.4.1/../../../../arm-none-eabi/lib/thumb2/libc.a(lib_a-mprec.o)
 .text.__hi0bits
                0x00000000       0x40 /Users/Danny/libmaple/arm/bin/../lib/gcc/arm-none-eabi/4.4.1/../../../../arm-none-eabi/lib/thumb2/libc.a(lib_a-mprec.o)
 .text.__lo0bits
                0x00000000       0x64 /Users/Danny/libmaple/arm/bin/../lib/gcc/arm-none-eabi/4.4.1/../../../../arm-none-eabi/lib/thumb2/libc.a(lib_a-mprec.o)
 .text.__mcmp   0x00000000       0x3e /Users/Danny/libmaple/arm/bin/../lib/gcc/arm-none-eabi/4.4.1/../../../../arm-none-eabi/lib/thumb2/libc.a(lib_a-mprec.o)
 .text.__ulp    0x00000000       0x44 /Users/Danny/libmaple/arm/bin/../lib/gcc/arm-none-eabi/4.4.1/../../../../arm-none-eabi/lib/thumb2/libc.a(lib_a-mprec.o)
 .text.__b2d    0x00000000       0xa8 /Users/Danny/libmaple/arm/bin/../lib/gcc/arm-none-eabi/4.4.1/../../../../arm-none-eabi/lib/thumb2/libc.a(lib_a-mprec.o)
 .text.__ratio  0x00000000       0x48 /Users/Danny/libmaple/arm/bin/../lib/gcc/arm-none-eabi/4.4.1/../../../../arm-none-eabi/lib/thumb2/libc.a(lib_a-mprec.o)
 .text._mprec_log10
                0x00000000       0x34 /Users/Danny/libmaple/arm/bin/../lib/gcc/arm-none-eabi/4.4.1/../../../../arm-none-eabi/lib/thumb2/libc.a(lib_a-mprec.o)
 .text.__copybits
                0x00000000       0x3c /Users/Danny/libmaple/arm/bin/../lib/gcc/arm-none-eabi/4.4.1/../../../../arm-none-eabi/lib/thumb2/libc.a(lib_a-mprec.o)
 .text.__any_on
                0x00000000       0x46 /Users/Danny/libmaple/arm/bin/../lib/gcc/arm-none-eabi/4.4.1/../../../../arm-none-eabi/lib/thumb2/libc.a(lib_a-mprec.o)
 .text._Bfree   0x00000000       0x2e /Users/Danny/libmaple/arm/bin/../lib/gcc/arm-none-eabi/4.4.1/../../../../arm-none-eabi/lib/thumb2/libc.a(lib_a-mprec.o)
 .text._Balloc  0x00000000       0x66 /Users/Danny/libmaple/arm/bin/../lib/gcc/arm-none-eabi/4.4.1/../../../../arm-none-eabi/lib/thumb2/libc.a(lib_a-mprec.o)
 .text.__d2b    0x00000000       0xc2 /Users/Danny/libmaple/arm/bin/../lib/gcc/arm-none-eabi/4.4.1/../../../../arm-none-eabi/lib/thumb2/libc.a(lib_a-mprec.o)
 .text.__mdiff  0x00000000       0xd0 /Users/Danny/libmaple/arm/bin/../lib/gcc/arm-none-eabi/4.4.1/../../../../arm-none-eabi/lib/thumb2/libc.a(lib_a-mprec.o)
 .text.__lshift
                0x00000000       0xa4 /Users/Danny/libmaple/arm/bin/../lib/gcc/arm-none-eabi/4.4.1/../../../../arm-none-eabi/lib/thumb2/libc.a(lib_a-mprec.o)
 .text.__multiply
                0x00000000      0x122 /Users/Danny/libmaple/arm/bin/../lib/gcc/arm-none-eabi/4.4.1/../../../../arm-none-eabi/lib/thumb2/libc.a(lib_a-mprec.o)
 .text.__i2b    0x00000000       0x12 /Users/Danny/libmaple/arm/bin/../lib/gcc/arm-none-eabi/4.4.1/../../../../arm-none-eabi/lib/thumb2/libc.a(lib_a-mprec.o)
 .text.__multadd
                0x00000000       0x82 /Users/Danny/libmaple/arm/bin/../lib/gcc/arm-none-eabi/4.4.1/../../../../arm-none-eabi/lib/thumb2/libc.a(lib_a-mprec.o)
 .text.__pow5mult
                0x00000000       0xa4 /Users/Danny/libmaple/arm/bin/../lib/gcc/arm-none-eabi/4.4.1/../../../../arm-none-eabi/lib/thumb2/libc.a(lib_a-mprec.o)
 .text.__s2b    0x00000000       0x82 /Users/Danny/libmaple/arm/bin/../lib/gcc/arm-none-eabi/4.4.1/../../../../arm-none-eabi/lib/thumb2/libc.a(lib_a-mprec.o)
 .rodata.p05.2463
                0x00000000        0xc /Users/Danny/libmaple/arm/bin/../lib/gcc/arm-none-eabi/4.4.1/../../../../arm-none-eabi/lib/thumb2/libc.a(lib_a-mprec.o)
 .rodata.__mprec_tens
                0x00000000       0xc8 /Users/Danny/libmaple/arm/bin/../lib/gcc/arm-none-eabi/4.4.1/../../../../arm-none-eabi/lib/thumb2/libc.a(lib_a-mprec.o)
 .rodata.__mprec_bigtens
                0x00000000       0x28 /Users/Danny/libmaple/arm/bin/../lib/gcc/arm-none-eabi/4.4.1/../../../../arm-none-eabi/lib/thumb2/libc.a(lib_a-mprec.o)
 .rodata.__mprec_tinytens
                0x00000000       0x28 /Users/Danny/libmaple/arm/bin/../lib/gcc/arm-none-eabi/4.4.1/../../../../arm-none-eabi/lib/thumb2/libc.a(lib_a-mprec.o)
 .text          0x00000000        0x0 /Users/Danny/libmaple/arm/bin/../lib/gcc/arm-none-eabi/4.4.1/../../../../arm-none-eabi/lib/thumb2/libc.a(lib_a-reallocr.o)
 .data          0x00000000        0x0 /Users/Danny/libmaple/arm/bin/../lib/gcc/arm-none-eabi/4.4.1/../../../../arm-none-eabi/lib/thumb2/libc.a(lib_a-reallocr.o)
 .bss           0x00000000        0x0 /Users/Danny/libmaple/arm/bin/../lib/gcc/arm-none-eabi/4.4.1/../../../../arm-none-eabi/lib/thumb2/libc.a(lib_a-reallocr.o)
 .text._realloc_r
                0x00000000      0x2f4 /Users/Danny/libmaple/arm/bin/../lib/gcc/arm-none-eabi/4.4.1/../../../../arm-none-eabi/lib/thumb2/libc.a(lib_a-reallocr.o)
 .text          0x00000000        0x0 /Users/Danny/libmaple/arm/bin/../lib/gcc/arm-none-eabi/4.4.1/../../../../arm-none-eabi/lib/thumb2/libc.a(lib_a-reent.o)
 .data          0x00000000        0x0 /Users/Danny/libmaple/arm/bin/../lib/gcc/arm-none-eabi/4.4.1/../../../../arm-none-eabi/lib/thumb2/libc.a(lib_a-reent.o)
 .bss           0x00000000        0x0 /Users/Danny/libmaple/arm/bin/../lib/gcc/arm-none-eabi/4.4.1/../../../../arm-none-eabi/lib/thumb2/libc.a(lib_a-reent.o)
 .text._wrapup_reent
                0x00000000       0x30 /Users/Danny/libmaple/arm/bin/../lib/gcc/arm-none-eabi/4.4.1/../../../../arm-none-eabi/lib/thumb2/libc.a(lib_a-reent.o)
 .text.cleanup_glue
                0x00000000       0x1a /Users/Danny/libmaple/arm/bin/../lib/gcc/arm-none-eabi/4.4.1/../../../../arm-none-eabi/lib/thumb2/libc.a(lib_a-reent.o)
 .text._reclaim_reent
                0x00000000       0xb4 /Users/Danny/libmaple/arm/bin/../lib/gcc/arm-none-eabi/4.4.1/../../../../arm-none-eabi/lib/thumb2/libc.a(lib_a-reent.o)
 .text          0x00000000        0x0 /Users/Danny/libmaple/arm/bin/../lib/gcc/arm-none-eabi/4.4.1/../../../../arm-none-eabi/lib/thumb2/libc.a(lib_a-s_isinfd.o)
 .data          0x00000000        0x0 /Users/Danny/libmaple/arm/bin/../lib/gcc/arm-none-eabi/4.4.1/../../../../arm-none-eabi/lib/thumb2/libc.a(lib_a-s_isinfd.o)
 .bss           0x00000000        0x0 /Users/Danny/libmaple/arm/bin/../lib/gcc/arm-none-eabi/4.4.1/../../../../arm-none-eabi/lib/thumb2/libc.a(lib_a-s_isinfd.o)
 .text.__isinfd
                0x00000000       0x22 /Users/Danny/libmaple/arm/bin/../lib/gcc/arm-none-eabi/4.4.1/../../../../arm-none-eabi/lib/thumb2/libc.a(lib_a-s_isinfd.o)
 .text          0x00000000        0x0 /Users/Danny/libmaple/arm/bin/../lib/gcc/arm-none-eabi/4.4.1/../../../../arm-none-eabi/lib/thumb2/libc.a(lib_a-s_isnand.o)
 .data          0x00000000        0x0 /Users/Danny/libmaple/arm/bin/../lib/gcc/arm-none-eabi/4.4.1/../../../../arm-none-eabi/lib/thumb2/libc.a(lib_a-s_isnand.o)
 .bss           0x00000000        0x0 /Users/Danny/libmaple/arm/bin/../lib/gcc/arm-none-eabi/4.4.1/../../../../arm-none-eabi/lib/thumb2/libc.a(lib_a-s_isnand.o)
 .text.__isnand
                0x00000000       0x1a /Users/Danny/libmaple/arm/bin/../lib/gcc/arm-none-eabi/4.4.1/../../../../arm-none-eabi/lib/thumb2/libc.a(lib_a-s_isnand.o)
 .text          0x00000000        0x0 /Users/Danny/libmaple/arm/bin/../lib/gcc/arm-none-eabi/4.4.1/../../../../arm-none-eabi/lib/thumb2/libc.a(lib_a-strcmp.o)
 .data          0x00000000        0x0 /Users/Danny/libmaple/arm/bin/../lib/gcc/arm-none-eabi/4.4.1/../../../../arm-none-eabi/lib/thumb2/libc.a(lib_a-strcmp.o)
 .bss           0x00000000        0x0 /Users/Danny/libmaple/arm/bin/../lib/gcc/arm-none-eabi/4.4.1/../../../../arm-none-eabi/lib/thumb2/libc.a(lib_a-strcmp.o)
 .text.strcmp   0x00000000       0x16 /Users/Danny/libmaple/arm/bin/../lib/gcc/arm-none-eabi/4.4.1/../../../../arm-none-eabi/lib/thumb2/libc.a(lib_a-strcmp.o)
 .text          0x00000000        0x0 /Users/Danny/libmaple/arm/bin/../lib/gcc/arm-none-eabi/4.4.1/../../../../arm-none-eabi/lib/thumb2/libc.a(lib_a-callocr.o)
 .data          0x00000000        0x0 /Users/Danny/libmaple/arm/bin/../lib/gcc/arm-none-eabi/4.4.1/../../../../arm-none-eabi/lib/thumb2/libc.a(lib_a-callocr.o)
 .bss           0x00000000        0x0 /Users/Danny/libmaple/arm/bin/../lib/gcc/arm-none-eabi/4.4.1/../../../../arm-none-eabi/lib/thumb2/libc.a(lib_a-callocr.o)
 .text._calloc_r
                0x00000000       0x58 /Users/Danny/libmaple/arm/bin/../lib/gcc/arm-none-eabi/4.4.1/../../../../arm-none-eabi/lib/thumb2/libc.a(lib_a-callocr.o)
 .text          0x00000000      0x2b0 /Users/Danny/libmaple/arm/bin/../lib/gcc/arm-none-eabi/4.4.1/thumb2/libgcc.a(_divsi3.o)
 .data          0x00000000        0x0 /Users/Danny/libmaple/arm/bin/../lib/gcc/arm-none-eabi/4.4.1/thumb2/libgcc.a(_divsi3.o)
 .bss           0x00000000        0x0 /Users/Danny/libmaple/arm/bin/../lib/gcc/arm-none-eabi/4.4.1/thumb2/libgcc.a(_divsi3.o)
 .text          0x00000000        0x0 /Users/Danny/libmaple/arm/bin/../lib/gcc/arm-none-eabi/4.4.1/thumb2/crtend.o
 .data          0x00000000        0x0 /Users/Danny/libmaple/arm/bin/../lib/gcc/arm-none-eabi/4.4.1/thumb2/crtend.o
 .bss           0x00000000        0x0 /Users/Danny/libmaple/arm/bin/../lib/gcc/arm-none-eabi/4.4.1/thumb2/crtend.o
 .jcr           0x00000000        0x4 /Users/Danny/libmaple/arm/bin/../lib/gcc/arm-none-eabi/4.4.1/thumb2/crtend.o
 .text          0x00000000        0x0 /Users/Danny/libmaple/arm/bin/../lib/gcc/arm-none-eabi/4.4.1/thumb2/crtn.o
 .data          0x00000000        0x0 /Users/Danny/libmaple/arm/bin/../lib/gcc/arm-none-eabi/4.4.1/thumb2/crtn.o
 .bss           0x00000000        0x0 /Users/Danny/libmaple/arm/bin/../lib/gcc/arm-none-eabi/4.4.1/thumb2/crtn.o

Memory Configuration

Name             Origin             Length             Attributes
ram              0x20000c00         0x00004400         xrw
rom              0x08005000         0x0001b000         xr
*default*        0x00000000         0xffffffff

Linker script and memory map

LOAD /Users/Danny/libmaple/arm/bin/../lib/gcc/arm-none-eabi/4.4.1/thumb2/crti.o
LOAD /Users/Danny/libmaple/arm/bin/../lib/gcc/arm-none-eabi/4.4.1/thumb2/crtbegin.o
START GROUP
LOAD /Users/Danny/libmaple/arm/bin/../lib/gcc/arm-none-eabi/4.4.1/thumb2/libgcc.a
LOAD /Users/Danny/libmaple/arm/bin/../lib/gcc/arm-none-eabi/4.4.1/../../../../arm-none-eabi/lib/thumb2/libc.a
LOAD /Users/Danny/libmaple/arm/bin/../lib/gcc/arm-none-eabi/4.4.1/../../../../arm-none-eabi/lib/thumb2/libm.a
END GROUP
                0x20005000                PROVIDE (__msp_init, 0x20005000)
                0x08007310                PROVIDE (__exc_reset, _start)

.text           0x08005000     0x4644
                0x08005000                _text = .
 *(.stm32.interrupt_vector)
 .stm32.interrupt_vector
                0x08005000       0xec build//Users/Danny/libmaple/libmaple/stm32f1/performance/vector_table.o
                0x08005000                __stm32_vector_table
 *(.text .text.* .gnu.linkonce.t.*)
 .text          0x080050ec       0x30 /Users/Danny/libmaple/arm/bin/../lib/gcc/arm-none-eabi/4.4.1/thumb2/crtbegin.o
 .text.adc_set_extsel
                0x0800511c       0x10 build//Users/Danny/libmaple/libmaple/adc.o
                0x0800511c                adc_set_extsel
 .text.adc_set_sample_rate
                0x0800512c       0x2e build//Users/Danny/libmaple/libmaple/adc.o
                0x0800512c                adc_set_sample_rate
 .text.adc_init
                0x0800515a       0x14 build//Users/Danny/libmaple/libmaple/adc.o
                0x0800515a                adc_init
 *fill*         0x0800516e        0x2 00
 .text.__irq_exti0
                0x08005170       0x20 build//Users/Danny/libmaple/libmaple/exti.o
                0x08005170                __irq_exti0
 .text.__irq_exti1
                0x08005190       0x20 build//Users/Danny/libmaple/libmaple/exti.o
                0x08005190                __irq_exti1
 .text.__irq_exti2
                0x080051b0       0x20 build//Users/Danny/libmaple/libmaple/exti.o
                0x080051b0                __irq_exti2
 .text.__irq_exti3
                0x080051d0       0x20 build//Users/Danny/libmaple/libmaple/exti.o
                0x080051d0                __irq_exti3
 .text.__irq_exti4
                0x080051f0       0x20 build//Users/Danny/libmaple/libmaple/exti.o
                0x080051f0                __irq_exti4
 .text.__irq_exti9_5
                0x08005210       0x38 build//Users/Danny/libmaple/libmaple/exti.o
                0x08005210                __irq_exti9_5
 .text.__irq_exti15_10
                0x08005248       0x38 build//Users/Danny/libmaple/libmaple/exti.o
                0x08005248                __irq_exti15_10
 .text.flash_set_latency
                0x08005280       0x14 build//Users/Danny/libmaple/libmaple/flash.o
                0x08005280                flash_set_latency
 .text.gpio_init
                0x08005294       0x14 build//Users/Danny/libmaple/libmaple/gpio.o
                0x08005294                gpio_init
 .text.nvic_irq_set_priority
                0x080052a8       0x2c build//Users/Danny/libmaple/libmaple/nvic.o
                0x080052a8                nvic_irq_set_priority
 .text.nvic_set_vector_table
                0x080052d4       0x14 build//Users/Danny/libmaple/libmaple/nvic.o
                0x080052d4                nvic_set_vector_table
 .text.nvic_init
                0x080052e8       0x24 build//Users/Danny/libmaple/libmaple/nvic.o
                0x080052e8                nvic_init
 .text.nvic_sys_reset
                0x0800530c       0x20 build//Users/Danny/libmaple/libmaple/nvic.o
                0x0800530c                nvic_sys_reset
 .text.rcc_dev_clk
                0x0800532c        0xc build//Users/Danny/libmaple/libmaple/rcc.o
                0x0800532c                rcc_dev_clk
 .text.rcc_switch_sysclk
                0x08005338       0x24 build//Users/Danny/libmaple/libmaple/rcc.o
                0x08005338                rcc_switch_sysclk
 .text.rcc_clk_reg
                0x0800535c        0xc build//Users/Danny/libmaple/libmaple/rcc.o
 .text.rcc_clk_on_mask
                0x08005368        0xa build//Users/Danny/libmaple/libmaple/rcc.o
 .text.rcc_turn_on_clk
                0x08005372       0x1a build//Users/Danny/libmaple/libmaple/rcc.o
                0x08005372                rcc_turn_on_clk
 .text.rcc_turn_off_clk
                0x0800538c       0x1a build//Users/Danny/libmaple/libmaple/rcc.o
                0x0800538c                rcc_turn_off_clk
 .text.rcc_is_clk_on
                0x080053a6       0x1a build//Users/Danny/libmaple/libmaple/rcc.o
                0x080053a6                rcc_is_clk_on
 .text.rcc_is_clk_ready
                0x080053c0       0x16 build//Users/Danny/libmaple/libmaple/rcc.o
                0x080053c0                rcc_is_clk_ready
 .text.spi_tx   0x080053d6       0x2a build//Users/Danny/libmaple/libmaple/spi.o
                0x080053d6                spi_tx
 .text.spi_init
                0x08005400       0x14 build//Users/Danny/libmaple/libmaple/spi.o
                0x08005400                spi_init
 .text.bb_peri_set_bit
                0x08005414        0xe build//Users/Danny/libmaple/libmaple/spi.o
 .text.spi_peripheral_enable
                0x08005422        0xa build//Users/Danny/libmaple/libmaple/spi.o
                0x08005422                spi_peripheral_enable
 .text.spi_peripheral_disable
                0x0800542c        0xa build//Users/Danny/libmaple/libmaple/spi.o
                0x0800542c                spi_peripheral_disable
 .text.spi_reconfigure
                0x08005436       0x22 build//Users/Danny/libmaple/libmaple/spi.o
 .text.spi_master_enable
                0x08005458        0xc build//Users/Danny/libmaple/libmaple/spi.o
                0x08005458                spi_master_enable
 .text.systick_enable
                0x08005464        0xc build//Users/Danny/libmaple/libmaple/systick.o
                0x08005464                systick_enable
 .text.systick_init
                0x08005470        0xc build//Users/Danny/libmaple/libmaple/systick.o
                0x08005470                systick_init
 .text.__exc_systick
                0x0800547c       0x1c build//Users/Danny/libmaple/libmaple/systick.o
                0x0800547c                __exc_systick
 .text.timer_foreach
                0x08005498       0x30 build//Users/Danny/libmaple/libmaple/timer.o
                0x08005498                timer_foreach
 .text.timer_disable
                0x080054c8       0x12 build//Users/Danny/libmaple/libmaple/timer.o
                0x080054c8                timer_disable
 *fill*         0x080054da        0x2 00
 .text.timer_has_cc_channel
                0x080054dc       0x50 build//Users/Danny/libmaple/libmaple/timer.o
                0x080054dc                timer_has_cc_channel
 .text.timer_init
                0x0800552c       0x14 build//Users/Danny/libmaple/libmaple/timer.o
                0x0800552c                timer_init
 .text.usart_disable
                0x08005540       0x22 build//Users/Danny/libmaple/libmaple/usart.o
                0x08005540                usart_disable
 .text.usart_tx
                0x08005562       0x1c build//Users/Danny/libmaple/libmaple/usart.o
                0x08005562                usart_tx
 .text.usart_putudec
                0x0800557e       0x44 build//Users/Danny/libmaple/libmaple/usart.o
                0x0800557e                usart_putudec
 *fill*         0x080055c2        0x2 00
 .text.usart_init
                0x080055c4       0x44 build//Users/Danny/libmaple/libmaple/usart.o
                0x080055c4                usart_init
 .text._usart_clock_freq
                0x08005608       0x24 build//Users/Danny/libmaple/libmaple/usart_private.o
                0x08005608                _usart_clock_freq
 .text.usart_putc
                0x0800562c       0x1a build//Users/Danny/libmaple/libmaple/util.o
 .text.usart_putstr
                0x08005646       0x1a build//Users/Danny/libmaple/libmaple/util.o
 .text.T.10     0x08005660       0x16 build//Users/Danny/libmaple/libmaple/util.o
 *fill*         0x08005676        0x2 00
 .text.throb    0x08005678       0x4c build//Users/Danny/libmaple/libmaple/util.o
                0x08005678                throb
 .text.__error  0x080056c4       0x14 build//Users/Danny/libmaple/libmaple/util.o
                0x080056c4                __error
 .text._fail    0x080056d8       0x64 build//Users/Danny/libmaple/libmaple/util.o
                0x080056d8                _fail
 .text.i2c_start_condition
                0x0800573c       0x14 build//Users/Danny/libmaple/libmaple/i2c.o
 .text.i2c_stop_condition
                0x08005750       0x1c build//Users/Danny/libmaple/libmaple/i2c.o
 .text.i2c_disable_irq
                0x0800576c        0xc build//Users/Danny/libmaple/libmaple/i2c.o
 .text.i2c_disable_ack
                0x08005778        0xc build//Users/Danny/libmaple/libmaple/i2c.o
 .text.i2c_write
                0x08005784        0x6 build//Users/Danny/libmaple/libmaple/i2c.o
 .text._i2c_irq_error_handler
                0x0800578a       0x2c build//Users/Danny/libmaple/libmaple/i2c.o
                0x0800578a                _i2c_irq_error_handler
 .text.i2c_enable_irq
                0x080057b6       0x14 build//Users/Danny/libmaple/libmaple/i2c.o
 *fill*         0x080057ca        0x2 00
 .text._i2c_irq_handler
                0x080057cc      0x170 build//Users/Danny/libmaple/libmaple/i2c.o
                0x080057cc                _i2c_irq_handler
 *fill*         0x0800593c        0x4 00
 .text          0x08005940       0x60 build//Users/Danny/libmaple/libmaple/exc.o
                0x08005940                __exc_nmi
                0x08005944                __exc_hardfault
                0x08005948                __exc_memmanage
                0x0800594c                __exc_busfault
                0x08005950                __exc_usagefault
 .text.usb_clear_ctr_rx
                0x080059a0       0x18 build//Users/Danny/libmaple/libmaple/usb/stm32f1/usb.o
 .text.usb_clear_ctr_tx
                0x080059b8       0x18 build//Users/Danny/libmaple/libmaple/usb/stm32f1/usb.o
 .text.usb_resume_init
                0x080059d0       0x1c build//Users/Danny/libmaple/libmaple/usb/stm32f1/usb.o
 .text.usb_resume
                0x080059ec       0x90 build//Users/Danny/libmaple/libmaple/usb/stm32f1/usb.o
 .text.handle_in0
                0x08005a7c        0x4 build//Users/Danny/libmaple/libmaple/usb/stm32f1/usb.o
 .text.usb_init_usblib
                0x08005a80       0x48 build//Users/Danny/libmaple/libmaple/usb/stm32f1/usb.o
                0x08005a80                usb_init_usblib
 .text.set_rx_tx_status0
                0x08005ac8       0x38 build//Users/Danny/libmaple/libmaple/usb/stm32f1/usb.o
 .text.__irq_usb_lp_can_rx0
                0x08005b00      0x198 build//Users/Danny/libmaple/libmaple/usb/stm32f1/usb.o
                0x08005b00                __irq_usb_lp_can_rx0
 .text.usb_pma_ptr
                0x08005c98        0xc build//Users/Danny/libmaple/libmaple/usb/stm32f1/usb_reg_map.o
 .text.usb_copy_to_pma
                0x08005ca4       0x44 build//Users/Danny/libmaple/libmaple/usb/stm32f1/usb_reg_map.o
                0x08005ca4                usb_copy_to_pma
 .text.usb_copy_from_pma
                0x08005ce8       0x30 build//Users/Danny/libmaple/libmaple/usb/stm32f1/usb_reg_map.o
                0x08005ce8                usb_copy_from_pma
 .text.usb_set_ep_rx_count
                0x08005d18       0x40 build//Users/Danny/libmaple/libmaple/usb/stm32f1/usb_reg_map.o
                0x08005d18                usb_set_ep_rx_count
 .text.gpio_write_bit
                0x08005d58       0x18 build//Users/Danny/libmaple/libmaple/usb/stm32f1/usb_cdcacm.o
 .text.usb_set_ep_rx_stat
                0x08005d70       0x24 build//Users/Danny/libmaple/libmaple/usb/stm32f1/usb_cdcacm.o
 .text.usb_set_ep_tx_stat
                0x08005d94       0x24 build//Users/Danny/libmaple/libmaple/usb/stm32f1/usb_cdcacm.o
 .text.usb_set_ep_type
                0x08005db8       0x1c build//Users/Danny/libmaple/libmaple/usb/stm32f1/usb_cdcacm.o
 .text.usb_btable_ptr
                0x08005dd4       0x18 build//Users/Danny/libmaple/libmaple/usb/stm32f1/usb_cdcacm.o
 .text.usb_set_ep_tx_addr
                0x08005dec       0x12 build//Users/Danny/libmaple/libmaple/usb/stm32f1/usb_cdcacm.o
 .text.usb_set_ep_rx_addr
                0x08005dfe       0x14 build//Users/Danny/libmaple/libmaple/usb/stm32f1/usb_cdcacm.o
 *fill*         0x08005e12        0x2 00
 .text.usb_cdcacm_set_hooks
                0x08005e14       0x20 build//Users/Danny/libmaple/libmaple/usb/stm32f1/usb_cdcacm.o
                0x08005e14                usb_cdcacm_set_hooks
 .text.usb_cdcacm_data_available
                0x08005e34        0xc build//Users/Danny/libmaple/libmaple/usb/stm32f1/usb_cdcacm.o
                0x08005e34                usb_cdcacm_data_available
 .text.usb_cdcacm_peek
                0x08005e40       0x34 build//Users/Danny/libmaple/libmaple/usb/stm32f1/usb_cdcacm.o
                0x08005e40                usb_cdcacm_peek
 .text.usb_cdcacm_get_dtr
                0x08005e74       0x10 build//Users/Danny/libmaple/libmaple/usb/stm32f1/usb_cdcacm.o
                0x08005e74                usb_cdcacm_get_dtr
 .text.vcomDataTxCb
                0x08005e84        0xc build//Users/Danny/libmaple/libmaple/usb/stm32f1/usb_cdcacm.o
 .text.vcomGetSetLineCoding
                0x08005e90       0x18 build//Users/Danny/libmaple/libmaple/usb/stm32f1/usb_cdcacm.o
 .text.usbDataSetup
                0x08005ea8       0x5c build//Users/Danny/libmaple/libmaple/usb/stm32f1/usb_cdcacm.o
 .text.usbNoDataSetup
                0x08005f04       0x4c build//Users/Danny/libmaple/libmaple/usb/stm32f1/usb_cdcacm.o
 .text.usbGetInterfaceSetting
                0x08005f50        0xe build//Users/Danny/libmaple/libmaple/usb/stm32f1/usb_cdcacm.o
 *fill*         0x08005f5e        0x2 00
 .text.usbSetConfiguration
                0x08005f60       0x1c build//Users/Danny/libmaple/libmaple/usb/stm32f1/usb_cdcacm.o
 .text.usbSetDeviceAddress
                0x08005f7c       0x10 build//Users/Danny/libmaple/libmaple/usb/stm32f1/usb_cdcacm.o
 .text.usbGetStringDescriptor
                0x08005f8c       0x20 build//Users/Danny/libmaple/libmaple/usb/stm32f1/usb_cdcacm.o
 .text.usbGetConfigDescriptor
                0x08005fac        0xc build//Users/Danny/libmaple/libmaple/usb/stm32f1/usb_cdcacm.o
 .text.usbGetDeviceDescriptor
                0x08005fb8        0xc build//Users/Danny/libmaple/libmaple/usb/stm32f1/usb_cdcacm.o
 .text.usb_cdcacm_rx
                0x08005fc4       0x3c build//Users/Danny/libmaple/libmaple/usb/stm32f1/usb_cdcacm.o
                0x08005fc4                usb_cdcacm_rx
 .text.usb_cdcacm_enable
                0x08006000       0x34 build//Users/Danny/libmaple/libmaple/usb/stm32f1/usb_cdcacm.o
                0x08006000                usb_cdcacm_enable
 .text.usbInit  0x08006034       0x44 build//Users/Danny/libmaple/libmaple/usb/stm32f1/usb_cdcacm.o
 .text.vcomDataRxCb
                0x08006078       0x44 build//Users/Danny/libmaple/libmaple/usb/stm32f1/usb_cdcacm.o
 .text.usbReset
                0x080060bc       0xf4 build//Users/Danny/libmaple/libmaple/usb/stm32f1/usb_cdcacm.o
 .text.usb_cdcacm_tx
                0x080061b0       0x44 build//Users/Danny/libmaple/libmaple/usb/stm32f1/usb_cdcacm.o
                0x080061b0                usb_cdcacm_tx
 .text.Standard_GetConfiguration
                0x080061f4       0x28 build//Users/Danny/libmaple/libmaple/usb/usb_lib/usb_core.o
                0x080061f4                Standard_GetConfiguration
 .text.Standard_SetConfiguration
                0x0800621c       0x38 build//Users/Danny/libmaple/libmaple/usb/usb_lib/usb_core.o
                0x0800621c                Standard_SetConfiguration
 .text.Standard_GetInterface
                0x08006254       0x28 build//Users/Danny/libmaple/libmaple/usb/usb_lib/usb_core.o
                0x08006254                Standard_GetInterface
 .text.Standard_SetInterface
                0x0800627c       0x48 build//Users/Danny/libmaple/libmaple/usb/usb_lib/usb_core.o
                0x0800627c                Standard_SetInterface
 .text.Standard_GetStatus
                0x080062c4       0xa4 build//Users/Danny/libmaple/libmaple/usb/usb_lib/usb_core.o
                0x080062c4                Standard_GetStatus
 .text.Standard_SetEndPointFeature
                0x08006368       0x84 build//Users/Danny/libmaple/libmaple/usb/usb_lib/usb_core.o
                0x08006368                Standard_SetEndPointFeature
 .text.Standard_SetDeviceFeature
                0x080063ec       0x24 build//Users/Danny/libmaple/libmaple/usb/usb_lib/usb_core.o
                0x080063ec                Standard_SetDeviceFeature
 .text.Standard_GetDescriptorData
                0x08006410       0x1c build//Users/Danny/libmaple/libmaple/usb/usb_lib/usb_core.o
                0x08006410                Standard_GetDescriptorData
 .text.SetDeviceAddress
                0x0800642c       0x44 build//Users/Danny/libmaple/libmaple/usb/usb_lib/usb_core.o
                0x0800642c                SetDeviceAddress
 .text.NOP_Process
                0x08006470        0x2 build//Users/Danny/libmaple/libmaple/usb/usb_lib/usb_core.o
                0x08006470                NOP_Process
 *fill*         0x08006472        0x2 00
 .text.Post0_Process
                0x08006474       0x44 build//Users/Danny/libmaple/libmaple/usb/usb_lib/usb_core.o
                0x08006474                Post0_Process
 .text.Out0_Process
                0x080064b8       0xd4 build//Users/Danny/libmaple/libmaple/usb/usb_lib/usb_core.o
                0x080064b8                Out0_Process
 .text.DataStageIn
                0x0800658c       0xac build//Users/Danny/libmaple/libmaple/usb/usb_lib/usb_core.o
 .text.In0_Process
                0x08006638       0x60 build//Users/Danny/libmaple/libmaple/usb/usb_lib/usb_core.o
                0x08006638                In0_Process
 .text.Standard_ClearFeature
                0x08006698       0xd4 build//Users/Danny/libmaple/libmaple/usb/usb_lib/usb_core.o
                0x08006698                Standard_ClearFeature
 .text.Setup0_Process
                0x0800676c      0x304 build//Users/Danny/libmaple/libmaple/usb/usb_lib/usb_core.o
                0x0800676c                Setup0_Process
 .text.UserToPMABufferCopy
                0x08006a70       0x2e build//Users/Danny/libmaple/libmaple/usb/usb_lib/usb_mem.o
                0x08006a70                UserToPMABufferCopy
 .text.PMAToUserBufferCopy
                0x08006a9e       0x24 build//Users/Danny/libmaple/libmaple/usb/usb_lib/usb_mem.o
                0x08006a9e                PMAToUserBufferCopy
 .text.SetEPTxStatus
                0x08006ac2       0x2c build//Users/Danny/libmaple/libmaple/usb/usb_lib/usb_regs.o
                0x08006ac2                SetEPTxStatus
 .text.ClearDTOG_RX
                0x08006aee       0x24 build//Users/Danny/libmaple/libmaple/usb/usb_lib/usb_regs.o
                0x08006aee                ClearDTOG_RX
 .text.ClearDTOG_TX
                0x08006b12       0x24 build//Users/Danny/libmaple/libmaple/usb/usb_lib/usb_regs.o
                0x08006b12                ClearDTOG_TX
 *fill*         0x08006b36        0x2 00
 .text.GetEPTxAddr
                0x08006b38       0x1c build//Users/Danny/libmaple/libmaple/usb/usb_lib/usb_regs.o
                0x08006b38                GetEPTxAddr
 .text.GetEPRxAddr
                0x08006b54       0x1c build//Users/Danny/libmaple/libmaple/usb/usb_lib/usb_regs.o
                0x08006b54                GetEPRxAddr
 .text.SetEPTxCount
                0x08006b70       0x1c build//Users/Danny/libmaple/libmaple/usb/usb_lib/usb_regs.o
                0x08006b70                SetEPTxCount
 .text.SetEPRxCount
                0x08006b8c       0x40 build//Users/Danny/libmaple/libmaple/usb/usb_lib/usb_regs.o
                0x08006b8c                SetEPRxCount
 .text.ByteSwap
                0x08006bcc        0xa build//Users/Danny/libmaple/libmaple/usb/usb_lib/usb_regs.o
                0x08006bcc                ByteSwap
 .text          0x08006bd6        0x2 build//Users/Danny/libmaple/libmaple/stm32f1/performance/isrs.o
                0x08006bd6                __irq_rcc
                0x08006bd6                __exc_debug_monitor
                0x08006bd6                __irq_adc
                0x08006bd6                __irq_can_rx1
                0x08006bd6                __irq_spi2
                0x08006bd6                __irq_can_sce
                0x08006bd6                __irq_pvd
                0x08006bd6                __irq_tamper
                0x08006bd6                __default_handler
                0x08006bd6                __irq_wwdg
                0x08006bd6                __stm32reservedexception10
                0x08006bd6                __irq_flash
                0x08006bd6                __stm32reservedexception13
                0x08006bd6                __irq_rtc
                0x08006bd6                __irq_spi1
                0x08006bd6                __stm32reservedexception7
                0x08006bd6                __irq_usb_hp_can_tx
                0x08006bd6                __irq_rtcalarm
                0x08006bd6                __stm32reservedexception8
                0x08006bd6                __irq_usbwakeup
                0x08006bd6                __stm32reservedexception9
 .text.adc_foreach
                0x08006bd8       0x1c build//Users/Danny/libmaple/libmaple/stm32f1/adc.o
                0x08006bd8                adc_foreach
 .text.adc_set_prescaler
                0x08006bf4        0x8 build//Users/Danny/libmaple/libmaple/stm32f1/adc.o
                0x08006bf4                adc_set_prescaler
 .text.bb_perip
                0x08006bfc        0xc build//Users/Danny/libmaple/libmaple/stm32f1/adc.o
 .text.adc_calibrate
                0x08006c08       0x2e build//Users/Danny/libmaple/libmaple/stm32f1/adc.o
                0x08006c08                adc_calibrate
 .text.adc_enable_single_swstart
                0x08006c36       0x36 build//Users/Danny/libmaple/libmaple/stm32f1/adc.o
                0x08006c36                adc_enable_single_swstart
 .text.dma_clear_isr_bits
                0x08006c6c       0x10 build//Users/Danny/libmaple/libmaple/stm32f1/dma.o
 .text.__irq_dma1_channel1
                0x08006c7c       0x20 build//Users/Danny/libmaple/libmaple/stm32f1/dma.o
                0x08006c7c                __irq_dma1_channel1
 .text.__irq_dma1_channel2
                0x08006c9c       0x20 build//Users/Danny/libmaple/libmaple/stm32f1/dma.o
                0x08006c9c                __irq_dma1_channel2
 .text.__irq_dma1_channel3
                0x08006cbc       0x20 build//Users/Danny/libmaple/libmaple/stm32f1/dma.o
                0x08006cbc                __irq_dma1_channel3
 .text.__irq_dma1_channel4
                0x08006cdc       0x20 build//Users/Danny/libmaple/libmaple/stm32f1/dma.o
                0x08006cdc                __irq_dma1_channel4
 .text.__irq_dma1_channel5
                0x08006cfc       0x20 build//Users/Danny/libmaple/libmaple/stm32f1/dma.o
                0x08006cfc                __irq_dma1_channel5
 .text.__irq_dma1_channel6
                0x08006d1c       0x20 build//Users/Danny/libmaple/libmaple/stm32f1/dma.o
                0x08006d1c                __irq_dma1_channel6
 .text.__irq_dma1_channel7
                0x08006d3c       0x20 build//Users/Danny/libmaple/libmaple/stm32f1/dma.o
                0x08006d3c                __irq_dma1_channel7
 .text.gpio_set_mode
                0x08006d5c       0x56 build//Users/Danny/libmaple/libmaple/stm32f1/gpio.o
                0x08006d5c                gpio_set_mode
 .text.afio_init
                0x08006db2       0x12 build//Users/Danny/libmaple/libmaple/stm32f1/gpio.o
                0x08006db2                afio_init
 .text.gpio_init_all
                0x08006dc4       0x30 build//Users/Danny/libmaple/libmaple/stm32f1/gpio.o
                0x08006dc4                gpio_init_all
 .text._i2c_irq_priority_fixup
                0x08006df4       0x1c build//Users/Danny/libmaple/libmaple/stm32f1/i2c.o
                0x08006df4                _i2c_irq_priority_fixup
 .text.__irq_i2c2_er
                0x08006e10        0xc build//Users/Danny/libmaple/libmaple/stm32f1/i2c.o
                0x08006e10                __irq_i2c2_er
 .text.__irq_i2c1_er
                0x08006e1c        0xc build//Users/Danny/libmaple/libmaple/stm32f1/i2c.o
                0x08006e1c                __irq_i2c1_er
 .text.__irq_i2c2_ev
                0x08006e28        0xc build//Users/Danny/libmaple/libmaple/stm32f1/i2c.o
                0x08006e28                __irq_i2c2_ev
 .text.__irq_i2c1_ev
                0x08006e34        0xc build//Users/Danny/libmaple/libmaple/stm32f1/i2c.o
                0x08006e34                __irq_i2c1_ev
 .text.rcc_configure_pll
                0x08006e40       0x38 build//Users/Danny/libmaple/libmaple/stm32f1/rcc.o
                0x08006e40                rcc_configure_pll
 .text.rcc_set_prescaler
                0x08006e78       0x20 build//Users/Danny/libmaple/libmaple/stm32f1/rcc.o
                0x08006e78                rcc_set_prescaler
 .text.bb_peri_set_bit
                0x08006e98        0xe build//Users/Danny/libmaple/libmaple/stm32f1/rcc.o
 *fill*         0x08006ea6        0x2 00
 .text.rcc_clk_enable
                0x08006ea8       0x28 build//Users/Danny/libmaple/libmaple/stm32f1/rcc.o
                0x08006ea8                rcc_clk_enable
 .text.rcc_reset_dev
                0x08006ed0       0x38 build//Users/Danny/libmaple/libmaple/stm32f1/rcc.o
                0x08006ed0                rcc_reset_dev
 .text.spi_config_gpios
                0x08006f08       0x64 build//Users/Danny/libmaple/libmaple/stm32f1/spi.o
                0x08006f08                spi_config_gpios
 .text.__irq_tim1_brk
                0x08006f6c       0x2c build//Users/Danny/libmaple/libmaple/stm32f1/timer.o
                0x08006f6c                __irq_tim1_brk
 .text.__irq_tim1_up
                0x08006f98       0x2c build//Users/Danny/libmaple/libmaple/stm32f1/timer.o
                0x08006f98                __irq_tim1_up
 .text.__irq_tim1_trg_com
                0x08006fc4       0x40 build//Users/Danny/libmaple/libmaple/stm32f1/timer.o
                0x08006fc4                __irq_tim1_trg_com
 .text.__irq_tim1_cc
                0x08007004       0x60 build//Users/Danny/libmaple/libmaple/stm32f1/timer.o
                0x08007004                __irq_tim1_cc
 .text.__irq_tim2
                0x08007064       0x8c build//Users/Danny/libmaple/libmaple/stm32f1/timer.o
                0x08007064                __irq_tim2
 .text.__irq_tim3
                0x080070f0       0x8c build//Users/Danny/libmaple/libmaple/stm32f1/timer.o
                0x080070f0                __irq_tim3
 .text.__irq_tim4
                0x0800717c       0x8c build//Users/Danny/libmaple/libmaple/stm32f1/timer.o
                0x0800717c                __irq_tim4
 .text.rb_push_insert
                0x08007208       0x52 build//Users/Danny/libmaple/libmaple/stm32f1/usart.o
 *fill*         0x0800725a        0x2 00
 .text.usart_foreach
                0x0800725c       0x24 build//Users/Danny/libmaple/libmaple/stm32f1/usart.o
                0x0800725c                usart_foreach
 .text.__irq_usart1
                0x08007280       0x14 build//Users/Danny/libmaple/libmaple/stm32f1/usart.o
                0x08007280                __irq_usart1
 .text.__irq_usart2
                0x08007294       0x14 build//Users/Danny/libmaple/libmaple/stm32f1/usart.o
                0x08007294                __irq_usart2
 .text.__irq_usart3
                0x080072a8       0x14 build//Users/Danny/libmaple/libmaple/stm32f1/usart.o
                0x080072a8                __irq_usart3
 .text.usart_set_baud_rate
                0x080072bc       0x54 build//Users/Danny/libmaple/libmaple/stm32f1/usart.o
                0x080072bc                usart_set_baud_rate
 .text          0x08007310       0x10 build//Users/Danny/libmaple/wirish/start.o
                0x08007310                _start
 .text.start_c  0x08007320       0x64 build//Users/Danny/libmaple/wirish/start_c.o
                0x08007320                start_c
 .text._sbrk    0x08007384       0x44 build//Users/Danny/libmaple/wirish/syscalls.o
                0x08007384                _sbrk
 .text.nvic_irq_enable
                0x080073c8       0x1c build//Users/Danny/libmaple/wirish/stm32f1/util_hooks.o
 .text.__lm_enable_error_usart
                0x080073e4       0x30 build//Users/Danny/libmaple/wirish/stm32f1/util_hooks.o
                0x080073e4                __lm_enable_error_usart
 .text.__lm_error
                0x08007414       0x44 build//Users/Danny/libmaple/wirish/stm32f1/util_hooks.o
                0x08007414                __lm_error
 .text.adc_disable
                0x08007458       0x12 build//Users/Danny/libmaple/wirish/stm32f1/util_hooks.o
 .text._Z9boardInitv
                0x0800746a        0x2 build//Users/Danny/libmaple/wirish/boards.o
                0x0800746a                _Z9boardInitv
 .text._ZL18adc_default_configPK7adc_dev
                0x0800746c       0x1c build//Users/Danny/libmaple/wirish/boards.o
 .text._Z4initv
                0x08007488       0xc0 build//Users/Danny/libmaple/wirish/boards.o
                0x08007488                _Z4initv
 .text.T.10     0x08007548        0x8 build//Users/Danny/libmaple/wirish/boards.o
 .text._ZL20timer_default_configP9timer_dev
                0x08007550       0xa2 build//Users/Danny/libmaple/wirish/boards.o
 .text.__cxa_pure_virtual
                0x080075f2        0x2 build//Users/Danny/libmaple/wirish/cxxabi-compat.o
                0x080075f2                __cxa_pure_virtual
 .text._ZN5PrintC2Ev
                0x080075f4        0xc build//Users/Danny/libmaple/wirish/HardwareSerial.o
                0x080075f4                _ZN5PrintC2Ev
 .text._ZN14HardwareSerialC1EP9usart_devhh
                0x08007600       0x20 build//Users/Danny/libmaple/wirish/HardwareSerial.o
                0x08007600                _ZN14HardwareSerialC1EP9usart_devhh
 .text._ZN14HardwareSerial5writeEh
                0x08007620       0x1a build//Users/Danny/libmaple/wirish/HardwareSerial.o
                0x08007620                _ZN14HardwareSerial5writeEh
 *fill*         0x0800763a        0x2 00
 .text._GLOBAL__I_Serial1
                0x0800763c       0x48 build//Users/Danny/libmaple/wirish/HardwareSerial.o
 .text._ZL10interruptsv
                0x08007684        0x4 build//Users/Danny/libmaple/wirish/HardwareTimer.o
 .text._ZL12noInterruptsv
                0x08007688        0x4 build//Users/Danny/libmaple/wirish/HardwareTimer.o
 .text.set_this_dev
                0x0800768c       0x1c build//Users/Danny/libmaple/wirish/HardwareTimer.o
 .text._ZN13HardwareTimerC1Eh
                0x080076a8       0x48 build//Users/Danny/libmaple/wirish/HardwareTimer.o
                0x080076a8                _ZN13HardwareTimerC1Eh
 .text._GLOBAL__I__ZN13HardwareTimerC2Eh
                0x080076f0       0x38 build//Users/Danny/libmaple/wirish/HardwareTimer.o
 .text._ZN5Print5writeEPKc
                0x08007728       0x1c build//Users/Danny/libmaple/wirish/Print.o
                0x08007728                _ZN5Print5writeEPKc
 .text._ZN5Print5writeEPKvj
                0x08007744       0x20 build//Users/Danny/libmaple/wirish/Print.o
                0x08007744                _ZN5Print5writeEPKvj
 .text._ZN5Print5printEc
                0x08007764        0xa build//Users/Danny/libmaple/wirish/Print.o
                0x08007764                _ZN5Print5printEc
 .text._ZN5Print5printEPKc
                0x0800776e        0xa build//Users/Danny/libmaple/wirish/Print.o
                0x0800776e                _ZN5Print5printEPKc
 .text._ZN5Print7printlnEv
                0x08007778       0x16 build//Users/Danny/libmaple/wirish/Print.o
                0x08007778                _ZN5Print7printlnEv
 .text._ZN5Print7printlnEPKc
                0x0800778e       0x12 build//Users/Danny/libmaple/wirish/Print.o
                0x0800778e                _ZN5Print7printlnEPKc
 .text._ZN5Print11printNumberEyh
                0x080077a0       0x7c build//Users/Danny/libmaple/wirish/Print.o
                0x080077a0                _ZN5Print11printNumberEyh
 .text._ZN5Print5printEyi
                0x0800781c       0x1e build//Users/Danny/libmaple/wirish/Print.o
                0x0800781c                _ZN5Print5printEyi
 .text._ZN5Print5printEhi
                0x0800783a       0x12 build//Users/Danny/libmaple/wirish/Print.o
                0x0800783a                _ZN5Print5printEhi
 .text._ZN5Print7printlnEhi
                0x0800784c       0x12 build//Users/Danny/libmaple/wirish/Print.o
                0x0800784c                _ZN5Print7printlnEhi
 .text._ZN5Print5printExi
                0x0800785e       0x40 build//Users/Danny/libmaple/wirish/Print.o
                0x0800785e                _ZN5Print5printExi
 .text._ZN5Print5printEii
                0x0800789e       0x10 build//Users/Danny/libmaple/wirish/Print.o
                0x0800789e                _ZN5Print5printEii
 .text._ZN5Print7printlnEii
                0x080078ae       0x12 build//Users/Danny/libmaple/wirish/Print.o
                0x080078ae                _ZN5Print7printlnEii
 .text._ZN9USBSerialC1Ev
                0x080078c0       0x14 build//Users/Danny/libmaple/wirish/usb_serial.o
                0x080078c0                _ZN9USBSerialC1Ev
 .text._ZN9USBSerial5writeEh
                0x080078d4       0x14 build//Users/Danny/libmaple/wirish/usb_serial.o
                0x080078d4                _ZN9USBSerial5writeEh
 .text._ZN9USBSerial11isConnectedEv
                0x080078e8       0x18 build//Users/Danny/libmaple/wirish/usb_serial.o
                0x080078e8                _ZN9USBSerial11isConnectedEv
 .text._ZL14ifaceSetupHookjPv
                0x08007900       0x40 build//Users/Danny/libmaple/wirish/usb_serial.o
 .text._ZN9USBSerial4readEPvj
                0x08007940       0x22 build//Users/Danny/libmaple/wirish/usb_serial.o
                0x08007940                _ZN9USBSerial4readEPvj
 .text._ZN9USBSerial4readEv
                0x08007962       0x12 build//Users/Danny/libmaple/wirish/usb_serial.o
                0x08007962                _ZN9USBSerial4readEv
 .text._ZN9USBSerial9availableEv
                0x08007974        0x4 build//Users/Danny/libmaple/wirish/usb_serial.o
                0x08007974                _ZN9USBSerial9availableEv
 .text._ZN9USBSerial5writeEPKvj
                0x08007978       0x50 build//Users/Danny/libmaple/wirish/usb_serial.o
                0x08007978                _ZN9USBSerial5writeEPKvj
 .text._ZN9USBSerial5writeEPKc
                0x080079c8       0x1a build//Users/Danny/libmaple/wirish/usb_serial.o
                0x080079c8                _ZN9USBSerial5writeEPKc
 *fill*         0x080079e2        0x2 00
 .text._ZN9USBSerial5beginEv
                0x080079e4       0x2c build//Users/Danny/libmaple/wirish/usb_serial.o
                0x080079e4                _ZN9USBSerial5beginEv
 .text._ZL6rxHookjPv
                0x08007a10       0x7c build//Users/Danny/libmaple/wirish/usb_serial.o
 .text._GLOBAL__I__ZN9USBSerialC2Ev
                0x08007a8c        0xc build//Users/Danny/libmaple/wirish/usb_serial.o
 .text._ZL10wait_resetv
                0x08007a98       0x10 build//Users/Danny/libmaple/wirish/usb_serial.o
 .text._Z17delayMicrosecondsj
                0x08007aa8        0xe build//Users/Danny/libmaple/wirish/wirish_time.o
                0x08007aa8                _Z17delayMicrosecondsj
 .text._Z5delaym
                0x08007ab6       0x18 build//Users/Danny/libmaple/wirish/wirish_time.o
                0x08007ab6                _Z5delaym
 .text._ZN6wirish4priv15board_reset_pllEv
                0x08007ace        0x2 build//Users/Danny/libmaple/wirish/stm32f1/boards_setup.o
                0x08007ace                _ZN6wirish4priv15board_reset_pllEv
 .text._ZN6wirish4priv11series_initEv
                0x08007ad0        0x4 build//Users/Danny/libmaple/wirish/stm32f1/boards_setup.o
                0x08007ad0                _ZN6wirish4priv11series_initEv
 .text._ZN6wirish4priv15board_setup_usbEv
                0x08007ad4        0xc build//Users/Danny/libmaple/wirish/stm32f1/boards_setup.o
                0x08007ad4                _ZN6wirish4priv15board_setup_usbEv
 .text._ZN6wirish4priv16board_setup_gpioEv
                0x08007ae0        0x4 build//Users/Danny/libmaple/wirish/stm32f1/boards_setup.o
                0x08007ae0                _ZN6wirish4priv16board_setup_gpioEv
 .text._ZN6wirish4priv28board_setup_clock_prescalersEv
                0x08007ae4       0x20 build//Users/Danny/libmaple/wirish/stm32f1/boards_setup.o
                0x08007ae4                _ZN6wirish4priv28board_setup_clock_prescalersEv
 .text._GLOBAL__I_PIN_MAP
                0x08007b04      0x158 build//Users/Danny/libmaple/wirish/boards/maple/board.o
 .text.__exc_svc
                0x08007c5c       0x24 build//Users/Danny/libmaple/libraries/FreeRTOS/utility/port.o
                0x08007c5c                __exc_svc
 .text.__exc_pendsv
                0x08007c80       0x40 build//Users/Danny/libmaple/libraries/FreeRTOS/utility/port.o
                0x08007c80                __exc_pendsv
 .text.vTaskSwitchContext
                0x08007cc0       0xf0 build//Users/Danny/libmaple/libraries/FreeRTOS/utility/tasks.o
                0x08007cc0                vTaskSwitchContext
 .text.vApplicationStackOverflowHook
                0x08007db0        0x2 build//Users/Danny/libmaple/libraries/FreeRTOS/MapleFreeRTOS.o
                0x08007db0                vApplicationStackOverflowHook
 .text._ZN6SD_DevC1Ev
                0x08007db2        0x2 build//Users/Danny/Maple_Workbench/SD/libSD/SD.o
                0x08007db2                _ZN6SD_DevC1Ev
 .text._ZN6SD_DevD1Ev
                0x08007db4        0x2 build//Users/Danny/Maple_Workbench/SD/libSD/SD.o
                0x08007db4                _ZN6SD_DevD1Ev
 .text._Z8spi_sendP7spi_devh
                0x08007db6       0x22 build//Users/Danny/Maple_Workbench/SD/libSD/SD.o
                0x08007db6                _Z8spi_sendP7spi_devh
 .text.T.35     0x08007dd8       0x18 build//Users/Danny/Maple_Workbench/SD/libSD/SD.o
 .text._ZN6SD_Dev7commandEiPhS0_i
                0x08007df0       0xd0 build//Users/Danny/Maple_Workbench/SD/libSD/SD.o
                0x08007df0                _ZN6SD_Dev7commandEiPhS0_i
 .text._ZN6SD_Dev9readBlockEmPc
                0x08007ec0      0x188 build//Users/Danny/Maple_Workbench/SD/libSD/SD.o
                0x08007ec0                _ZN6SD_Dev9readBlockEmPc
 .text._ZN6SD_Dev4initEP7spi_devP8gpio_dev8spi_mode12spi_cfg_flag
                0x08008048      0x234 build//Users/Danny/Maple_Workbench/SD/libSD/SD.o
                0x08008048                _ZN6SD_Dev4initEP7spi_devP8gpio_dev8spi_mode12spi_cfg_flag
 .text._ZN9PartitionC1Ev
                0x0800827c        0x2 build//Users/Danny/Maple_Workbench/SD/libFAT/FAT.o
                0x0800827c                _ZN9PartitionC1Ev
 .text._ZN9PartitionD1Ev
                0x0800827e        0x2 build//Users/Danny/Maple_Workbench/SD/libFAT/FAT.o
                0x0800827e                _ZN9PartitionD1Ev
 .text._ZN7FileBoxC1EP9Partition
                0x08008280        0x4 build//Users/Danny/Maple_Workbench/SD/libFAT/FAT.o
                0x08008280                _ZN7FileBoxC1EP9Partition
 .text._ZN7FileBoxD1Ev
                0x08008284        0x2 build//Users/Danny/Maple_Workbench/SD/libFAT/FAT.o
                0x08008284                _ZN7FileBoxD1Ev
 *fill*         0x08008286        0x2 00
 .text._ZN9Partition4initEP6SD_Dev
                0x08008288       0xc4 build//Users/Danny/Maple_Workbench/SD/libFAT/FAT.o
                0x08008288                _ZN9Partition4initEP6SD_Dev
 .text._Z7premainv
                0x0800834c        0x4 build//Users/Danny/Maple_Workbench/SD/main.o
                0x0800834c                _Z7premainv
 .text._Z4loopv
                0x08008350       0x70 build//Users/Danny/Maple_Workbench/SD/main.o
                0x08008350                _Z4loopv
 .text._Z5setupv
                0x080083c0       0x64 build//Users/Danny/Maple_Workbench/SD/main.o
                0x080083c0                _Z5setupv
 .text.main     0x08008424        0xc build//Users/Danny/Maple_Workbench/SD/main.o
                0x08008424                main
 .text._GLOBAL__I_spi
                0x08008430       0x7c build//Users/Danny/Maple_Workbench/SD/main.o
 .text.__aeabi_atexit
                0x080084ac        0xc /Users/Danny/libmaple/arm/bin/../lib/gcc/arm-none-eabi/4.4.1/../../../../arm-none-eabi/lib/thumb2/libstdc++.a(atexit_arm.o)
                0x080084ac                __aeabi_atexit
 .text          0x080084b8       0x2c /Users/Danny/libmaple/arm/bin/../lib/gcc/arm-none-eabi/4.4.1/thumb2/libgcc.a(_aeabi_uldivmod.o)
                0x080084b8                __aeabi_uldivmod
 .text          0x080084e4       0x58 /Users/Danny/libmaple/arm/bin/../lib/gcc/arm-none-eabi/4.4.1/thumb2/libgcc.a(bpabi.o)
                0x080084e4                __gnu_uldivmod_helper
                0x08008510                __gnu_ldivmod_helper
 .text          0x0800853c        0x4 /Users/Danny/libmaple/arm/bin/../lib/gcc/arm-none-eabi/4.4.1/thumb2/libgcc.a(_dvmd_tls.o)
                0x0800853c                __aeabi_ldiv0
                0x0800853c                __aeabi_idiv0
 .text          0x08008540      0x364 /Users/Danny/libmaple/arm/bin/../lib/gcc/arm-none-eabi/4.4.1/thumb2/libgcc.a(_divdi3.o)
                0x08008540                __divdi3
 .text          0x080088a4      0x300 /Users/Danny/libmaple/arm/bin/../lib/gcc/arm-none-eabi/4.4.1/thumb2/libgcc.a(_udivdi3.o)
                0x080088a4                __udivdi3
 *fill*         0x08008ba4        0x4 00
 .text          0x08008ba8      0x278 /Users/Danny/libmaple/arm/bin/../lib/gcc/arm-none-eabi/4.4.1/thumb2/libgcc.a(_udivsi3.o)
                0x08008ba8                __udivsi3
                0x08008ba8                __aeabi_uidiv
                0x08008e04                __aeabi_uidivmod
 .text.__cxa_atexit
                0x08008e20       0x16 /Users/Danny/libmaple/arm/bin/../lib/gcc/arm-none-eabi/4.4.1/../../../../arm-none-eabi/lib/thumb2/libc.a(lib_a-cxa_atexit.o)
                0x08008e20                __cxa_atexit
 *fill*         0x08008e36        0x2 00
 .text.__errno  0x08008e38        0xc /Users/Danny/libmaple/arm/bin/../lib/gcc/arm-none-eabi/4.4.1/../../../../arm-none-eabi/lib/thumb2/libc.a(lib_a-errno.o)
                0x08008e38                __errno
 .text.__libc_init_array
                0x08008e44       0x4c /Users/Danny/libmaple/arm/bin/../lib/gcc/arm-none-eabi/4.4.1/../../../../arm-none-eabi/lib/thumb2/libc.a(lib_a-init.o)
                0x08008e44                __libc_init_array
 .text.malloc   0x08008e90       0x10 /Users/Danny/libmaple/arm/bin/../lib/gcc/arm-none-eabi/4.4.1/../../../../arm-none-eabi/lib/thumb2/libc.a(lib_a-malloc.o)
                0x08008e90                malloc
 .text._malloc_r
                0x08008ea0      0x424 /Users/Danny/libmaple/arm/bin/../lib/gcc/arm-none-eabi/4.4.1/../../../../arm-none-eabi/lib/thumb2/libc.a(lib_a-mallocr.o)
                0x08008ea0                _malloc_r
 .text.memcmp   0x080092c4       0x22 /Users/Danny/libmaple/arm/bin/../lib/gcc/arm-none-eabi/4.4.1/../../../../arm-none-eabi/lib/thumb2/libc.a(lib_a-memcmp.o)
                0x080092c4                memcmp
 .text.__malloc_lock
                0x080092e6        0x2 /Users/Danny/libmaple/arm/bin/../lib/gcc/arm-none-eabi/4.4.1/../../../../arm-none-eabi/lib/thumb2/libc.a(lib_a-mlock.o)
                0x080092e6                __malloc_lock
 .text.__malloc_unlock
                0x080092e8        0x2 /Users/Danny/libmaple/arm/bin/../lib/gcc/arm-none-eabi/4.4.1/../../../../arm-none-eabi/lib/thumb2/libc.a(lib_a-mlock.o)
                0x080092e8                __malloc_unlock
 *fill*         0x080092ea        0x2 00
 .text._sbrk_r  0x080092ec       0x24 /Users/Danny/libmaple/arm/bin/../lib/gcc/arm-none-eabi/4.4.1/../../../../arm-none-eabi/lib/thumb2/libc.a(lib_a-sbrkr.o)
                0x080092ec                _sbrk_r
 .text.strlen   0x08009310       0x10 /Users/Danny/libmaple/arm/bin/../lib/gcc/arm-none-eabi/4.4.1/../../../../arm-none-eabi/lib/thumb2/libc.a(lib_a-strlen.o)
                0x08009310                strlen
 .text.__register_exitproc
                0x08009320       0xb8 /Users/Danny/libmaple/arm/bin/../lib/gcc/arm-none-eabi/4.4.1/../../../../arm-none-eabi/lib/thumb2/libc.a(lib_a-__atexit.o)
                0x08009320                __register_exitproc
 .text._malloc_trim_r
                0x080093d8       0x98 /Users/Danny/libmaple/arm/bin/../lib/gcc/arm-none-eabi/4.4.1/../../../../arm-none-eabi/lib/thumb2/libc.a(lib_a-freer.o)
                0x080093d8                _malloc_trim_r
 .text._free_r  0x08009470      0x19c /Users/Danny/libmaple/arm/bin/../lib/gcc/arm-none-eabi/4.4.1/../../../../arm-none-eabi/lib/thumb2/libc.a(lib_a-freer.o)
                0x08009470                _free_r
 *(.plt)
 *(.gnu.warning)
 *(.glue_7t)
 .glue_7t       0x00000000        0x0 linker stubs
 *(.glue_7)
 .glue_7        0x00000000        0x0 linker stubs
 *(.vfp11_veneer)
 .vfp11_veneer  0x00000000        0x0 linker stubs
 *(.ARM.extab* .gnu.linkonce.armextab.*)
 *(.gcc_except_table)
 *(.eh_frame_hdr)
 *(.eh_frame)
                0x0800960c                . = ALIGN (0x4)
 *(.init)
 .init          0x0800960c        0x4 /Users/Danny/libmaple/arm/bin/../lib/gcc/arm-none-eabi/4.4.1/thumb2/crti.o
                0x0800960c                _init
 .init          0x08009610        0x8 /Users/Danny/libmaple/arm/bin/../lib/gcc/arm-none-eabi/4.4.1/thumb2/crtn.o
                0x08009618                . = ALIGN (0x4)
                0x08009618                __preinit_array_start = .
 *(.preinit_array)
                0x08009618                __preinit_array_end = .
                0x08009618                . = ALIGN (0x4)
                0x08009618                __init_array_start = .
 *(SORT(.init_array.*))
 *(.init_array)
 .init_array    0x08009618        0x4 /Users/Danny/libmaple/arm/bin/../lib/gcc/arm-none-eabi/4.4.1/thumb2/crtbegin.o
 .init_array    0x0800961c        0x4 build//Users/Danny/libmaple/wirish/HardwareSerial.o
 .init_array    0x08009620        0x4 build//Users/Danny/libmaple/wirish/HardwareTimer.o
 .init_array    0x08009624        0x4 build//Users/Danny/libmaple/wirish/usb_serial.o
 .init_array    0x08009628        0x4 build//Users/Danny/libmaple/wirish/boards/maple/board.o
 .init_array    0x0800962c        0x8 build//Users/Danny/Maple_Workbench/SD/main.o
                0x08009634                __init_array_end = .
                0x08009634                . = ALIGN (0x4)
 *crtbegin.o(.ctors)
 *(EXCLUDE_FILE(*crtend.o) .ctors)
 *(SORT(.ctors.*))
 *crtend.o(.ctors)
                0x08009634                . = ALIGN (0x4)
 *(.fini)
 .fini          0x08009634        0x4 /Users/Danny/libmaple/arm/bin/../lib/gcc/arm-none-eabi/4.4.1/thumb2/crti.o
                0x08009634                _fini
 .fini          0x08009638        0x8 /Users/Danny/libmaple/arm/bin/../lib/gcc/arm-none-eabi/4.4.1/thumb2/crtn.o
                0x08009640                . = ALIGN (0x4)
                0x08009640                __fini_array_start = .
 *(.fini_array)
 .fini_array    0x08009640        0x4 /Users/Danny/libmaple/arm/bin/../lib/gcc/arm-none-eabi/4.4.1/thumb2/crtbegin.o
 *(SORT(.fini_array.*))
                0x08009644                __fini_array_end = .
 *crtbegin.o(.dtors)
 *(EXCLUDE_FILE(*crtend.o) .dtors)
 *(SORT(.dtors.*))
 *crtend.o(.dtors)

.v4_bx          0x08009644        0x0
 .v4_bx         0x00000000        0x0 linker stubs

.text.align     0x08009644        0x4
                0x08009648                . = ALIGN (0x8)
 *fill*         0x08009644        0x4 00
                0x08009648                _etext = .
                0x08009648                __exidx_start = .

.ARM.exidx      0x08009648        0x8
 *(.ARM.exidx* .gnu.linkonce.armexidx.*)
 .ARM.exidx     0x08009648        0x8 build//Users/Danny/libmaple/wirish/start.o
 .ARM.exidx.text.__aeabi_atexit
                0x08009650        0x0 /Users/Danny/libmaple/arm/bin/../lib/gcc/arm-none-eabi/4.4.1/../../../../arm-none-eabi/lib/thumb2/libstdc++.a(atexit_arm.o)
                                  0x8 (size before relaxing)
 .ARM.exidx     0x08009650        0x0 /Users/Danny/libmaple/arm/bin/../lib/gcc/arm-none-eabi/4.4.1/thumb2/libgcc.a(_divdi3.o)
                                  0x8 (size before relaxing)
 .ARM.exidx     0x08009650        0x0 /Users/Danny/libmaple/arm/bin/../lib/gcc/arm-none-eabi/4.4.1/thumb2/libgcc.a(_udivdi3.o)
                                  0x8 (size before relaxing)
                0x08009650                __exidx_end = .

.data           0x20000c00      0xbb8 load address 0x08009650
                0x20000c00                . = ALIGN (0x8)
                0x20000c00                _data = .
 *(.got.plt)
 *(.got)
 *(.data .data.* .gnu.linkonce.d.*)
 .data          0x20000c00        0x4 /Users/Danny/libmaple/arm/bin/../lib/gcc/arm-none-eabi/4.4.1/thumb2/crtbegin.o
                0x20000c00                __dso_handle
 .data.exti_channels
                0x20000c04       0x80 build//Users/Danny/libmaple/libmaple/exti.o
 .data.timer3   0x20000c84       0x24 build//Users/Danny/libmaple/libmaple/timer.o
 .data.timer4   0x20000ca8       0x24 build//Users/Danny/libmaple/libmaple/timer.o
 .data.TIMER1   0x20000ccc        0x4 build//Users/Danny/libmaple/libmaple/timer.o
                0x20000ccc                TIMER1
 .data.TIMER2   0x20000cd0        0x4 build//Users/Danny/libmaple/libmaple/timer.o
                0x20000cd0                TIMER2
 .data.TIMER3   0x20000cd4        0x4 build//Users/Danny/libmaple/libmaple/timer.o
                0x20000cd4                TIMER3
 .data.TIMER4   0x20000cd8        0x4 build//Users/Danny/libmaple/libmaple/timer.o
                0x20000cd8                TIMER4
 .data.timer1   0x20000cdc       0x28 build//Users/Danny/libmaple/libmaple/timer.o
 .data.timer2   0x20000d04       0x24 build//Users/Danny/libmaple/libmaple/timer.o
 .data.USBLIB   0x20000d28        0x4 build//Users/Danny/libmaple/libmaple/usb/stm32f1/usb.o
                0x20000d28                USBLIB
 .data.usblib   0x20000d2c       0x10 build//Users/Danny/libmaple/libmaple/usb/stm32f1/usb.o
 .data.Device_Descriptor
                0x20000d3c        0x8 build//Users/Danny/libmaple/libmaple/usb/stm32f1/usb_cdcacm.o
                0x20000d3c                Device_Descriptor
 .data.Config_Descriptor
                0x20000d44        0x8 build//Users/Danny/libmaple/libmaple/usb/stm32f1/usb_cdcacm.o
                0x20000d44                Config_Descriptor
 .data.Device_Property
                0x20000d4c       0x30 build//Users/Danny/libmaple/libmaple/usb/stm32f1/usb_cdcacm.o
                0x20000d4c                Device_Property
 .data.User_Standard_Requests
                0x20000d7c       0x24 build//Users/Danny/libmaple/libmaple/usb/stm32f1/usb_cdcacm.o
                0x20000d7c                User_Standard_Requests
 .data.ep_int_in
                0x20000da0       0x1c build//Users/Danny/libmaple/libmaple/usb/stm32f1/usb_cdcacm.o
 .data.ep_int_out
                0x20000dbc       0x1c build//Users/Danny/libmaple/libmaple/usb/stm32f1/usb_cdcacm.o
 .data.String_Descriptor
                0x20000dd8       0x18 build//Users/Danny/libmaple/libmaple/usb/stm32f1/usb_cdcacm.o
                0x20000dd8                String_Descriptor
 .data.line_coding
                0x20000df0        0x8 build//Users/Danny/libmaple/libmaple/usb/stm32f1/usb_cdcacm.o
 .data.Device_Table
                0x20000df8        0x4 build//Users/Danny/libmaple/libmaple/usb/stm32f1/usb_cdcacm.o
                0x20000df8                Device_Table
 .data.adc1     0x20000dfc        0x8 build//Users/Danny/libmaple/libmaple/stm32f1/adc.o
 .data.adc2     0x20000e04        0x8 build//Users/Danny/libmaple/libmaple/stm32f1/adc.o
 .data.ADC1     0x20000e0c        0x4 build//Users/Danny/libmaple/libmaple/stm32f1/adc.o
                0x20000e0c                ADC1
 .data.ADC2     0x20000e10        0x4 build//Users/Danny/libmaple/libmaple/stm32f1/adc.o
                0x20000e10                ADC2
 .data.DMA1     0x20000e14        0x4 build//Users/Danny/libmaple/libmaple/stm32f1/dma.o
                0x20000e14                DMA1
 .data.dma1     0x20000e18       0x40 build//Users/Danny/libmaple/libmaple/stm32f1/dma.o
 .data.gpioa    0x20000e58        0x8 build//Users/Danny/libmaple/libmaple/stm32f1/gpio.o
                0x20000e58                gpioa
 .data.gpiob    0x20000e60        0x8 build//Users/Danny/libmaple/libmaple/stm32f1/gpio.o
                0x20000e60                gpiob
 .data.gpioc    0x20000e68        0x8 build//Users/Danny/libmaple/libmaple/stm32f1/gpio.o
                0x20000e68                gpioc
 .data.gpiod    0x20000e70        0x8 build//Users/Danny/libmaple/libmaple/stm32f1/gpio.o
                0x20000e70                gpiod
 .data.i2c1     0x20000e78       0x24 build//Users/Danny/libmaple/libmaple/stm32f1/i2c.o
 .data.i2c2     0x20000e9c       0x24 build//Users/Danny/libmaple/libmaple/stm32f1/i2c.o
 .data.enable_regs.1593
                0x20000ec0        0xc build//Users/Danny/libmaple/libmaple/stm32f1/rcc.o
 .data.reset_regs.1597
                0x20000ecc        0x8 build//Users/Danny/libmaple/libmaple/stm32f1/rcc.o
 .data.spi1     0x20000ed4        0x8 build//Users/Danny/libmaple/libmaple/stm32f1/spi.o
 .data.SPI1     0x20000edc        0x4 build//Users/Danny/libmaple/libmaple/stm32f1/spi.o
                0x20000edc                SPI1
 .data.USART1   0x20000ee0        0x4 build//Users/Danny/libmaple/libmaple/stm32f1/usart.o
                0x20000ee0                USART1
 .data.USART2   0x20000ee4        0x4 build//Users/Danny/libmaple/libmaple/stm32f1/usart.o
                0x20000ee4                USART2
 .data.USART3   0x20000ee8        0x4 build//Users/Danny/libmaple/libmaple/stm32f1/usart.o
                0x20000ee8                USART3
 .data.usart1   0x20000eec       0x50 build//Users/Danny/libmaple/libmaple/stm32f1/usart.o
 .data.usart2   0x20000f3c       0x50 build//Users/Danny/libmaple/libmaple/stm32f1/usart.o
 .data.usart3   0x20000f8c       0x50 build//Users/Danny/libmaple/libmaple/stm32f1/usart.o
 .data._ZN6wirish4privL8pll_dataE
                0x20000fdc        0x4 build//Users/Danny/libmaple/wirish/stm32f1/boards_setup.o
 .data._ZN6wirish4priv9w_adc_smpE
                0x20000fe0        0x1 build//Users/Danny/libmaple/wirish/stm32f1/boards_setup.o
                0x20000fe0                _ZN6wirish4priv9w_adc_smpE
 *fill*         0x20000fe1        0x1 00
 .data._ZN6wirish4priv9w_adc_preE
                0x20000fe2        0x2 build//Users/Danny/libmaple/wirish/stm32f1/boards_setup.o
                0x20000fe2                _ZN6wirish4priv9w_adc_preE
 .data._ZN6wirish4priv15w_board_pll_cfgE
                0x20000fe4        0x8 build//Users/Danny/libmaple/wirish/stm32f1/boards_setup.o
                0x20000fe4                _ZN6wirish4priv15w_board_pll_cfgE
 .data.PIN_MAP  0x20000fec      0x2c0 build//Users/Danny/libmaple/wirish/boards/maple/board.o
                0x20000fec                PIN_MAP
 .data.uxPreviousTask
                0x200012ac        0x4 build//Users/Danny/libmaple/libraries/FreeRTOS/utility/tasks.o
 .data.impure_data
                0x200012b0       0xf0 /Users/Danny/libmaple/arm/bin/../lib/gcc/arm-none-eabi/4.4.1/../../../../arm-none-eabi/lib/thumb2/libc.a(lib_a-impure.o)
 .data._impure_ptr
                0x200013a0        0x4 /Users/Danny/libmaple/arm/bin/../lib/gcc/arm-none-eabi/4.4.1/../../../../arm-none-eabi/lib/thumb2/libc.a(lib_a-impure.o)
                0x200013a0                _impure_ptr
 .data.__malloc_av_
                0x200013a4      0x408 /Users/Danny/libmaple/arm/bin/../lib/gcc/arm-none-eabi/4.4.1/../../../../arm-none-eabi/lib/thumb2/libc.a(lib_a-mallocr.o)
                0x200013a4                __malloc_av_
 .data.__malloc_trim_threshold
                0x200017ac        0x4 /Users/Danny/libmaple/arm/bin/../lib/gcc/arm-none-eabi/4.4.1/../../../../arm-none-eabi/lib/thumb2/libc.a(lib_a-mallocr.o)
                0x200017ac                __malloc_trim_threshold
 .data.__malloc_sbrk_base
                0x200017b0        0x4 /Users/Danny/libmaple/arm/bin/../lib/gcc/arm-none-eabi/4.4.1/../../../../arm-none-eabi/lib/thumb2/libc.a(lib_a-mallocr.o)
                0x200017b0                __malloc_sbrk_base
                0x200017b8                . = ALIGN (0x8)
 *fill*         0x200017b4        0x4 00
                0x200017b8                _edata = .

.jcr            0x200017b8        0x0 load address 0x0800a208
 .jcr           0x200017b8        0x0 /Users/Danny/libmaple/arm/bin/../lib/gcc/arm-none-eabi/4.4.1/thumb2/crtbegin.o

.rodata         0x0800a208      0x4dc
 *(.rodata .rodata.* .gnu.linkonce.r.*)
 .rodata.str1.1
                0x0800a208       0x7f build//Users/Danny/libmaple/libmaple/timer.o
 .rodata.str1.1
                0x0800a287       0x3f build//Users/Danny/libmaple/libmaple/util.o
                                 0x42 (size before relaxing)
 .rodata.str1.1
                0x0800a2c6       0x61 build//Users/Danny/libmaple/libmaple/i2c.o
                                 0x63 (size before relaxing)
 .rodata.str1.1
                0x0800a327       0x45 build//Users/Danny/libmaple/libmaple/usb/stm32f1/usb.o
 .rodata.usbVcomDescriptor_iProduct
                0x0800a36c       0x14 build//Users/Danny/libmaple/libmaple/usb/stm32f1/usb_cdcacm.o
                0x0800a36c                usbVcomDescriptor_iProduct
 .rodata.usbVcomDescriptor_iManufacturer
                0x0800a380       0x14 build//Users/Danny/libmaple/libmaple/usb/stm32f1/usb_cdcacm.o
                0x0800a380                usbVcomDescriptor_iManufacturer
 .rodata.usbVcomDescriptor_Device
                0x0800a394       0x14 build//Users/Danny/libmaple/libmaple/usb/stm32f1/usb_cdcacm.o
                0x0800a394                usbVcomDescriptor_Device
 .rodata.usbVcomDescriptor_Config
                0x0800a3a8       0x44 build//Users/Danny/libmaple/libmaple/usb/stm32f1/usb_cdcacm.o
                0x0800a3a8                usbVcomDescriptor_Config
 .rodata.usbVcomDescriptor_LangID
                0x0800a3ec        0x4 build//Users/Danny/libmaple/libmaple/usb/stm32f1/usb_cdcacm.o
                0x0800a3ec                usbVcomDescriptor_LangID
 .rodata.GPIOA  0x0800a3f0        0x4 build//Users/Danny/libmaple/libmaple/stm32f1/gpio.o
                0x0800a3f0                GPIOA
 .rodata.GPIOB  0x0800a3f4        0x4 build//Users/Danny/libmaple/libmaple/stm32f1/gpio.o
                0x0800a3f4                GPIOB
 .rodata.GPIOC  0x0800a3f8        0x4 build//Users/Danny/libmaple/libmaple/stm32f1/gpio.o
                0x0800a3f8                GPIOC
 .rodata.GPIOD  0x0800a3fc        0x4 build//Users/Danny/libmaple/libmaple/stm32f1/gpio.o
                0x0800a3fc                GPIOD
 .rodata.masks.1602
                0x0800a400       0x14 build//Users/Danny/libmaple/libmaple/stm32f1/rcc.o
 .rodata.str1.1
                0x0800a414       0x83 build//Users/Danny/libmaple/libmaple/stm32f1/rcc.o
 *fill*         0x0800a497        0x1 00
 .rodata.rcc_dev_table
                0x0800a498       0x5c build//Users/Danny/libmaple/libmaple/stm32f1/rcc.o
                0x0800a498                rcc_dev_table
 .rodata.str1.1
                0x0800a4f4       0x3b build//Users/Danny/libmaple/libmaple/stm32f1/usart.o
 *fill*         0x0800a52f        0x1 00
 .rodata._ZTV14HardwareSerial
                0x0800a530       0x18 build//Users/Danny/libmaple/wirish/HardwareSerial.o
                0x0800a530                _ZTV14HardwareSerial
 .rodata.str1.1
                0x0800a548       0x41 build//Users/Danny/libmaple/wirish/HardwareTimer.o
 *fill*         0x0800a589        0x7 00
 .rodata._ZTV5Print
                0x0800a590       0x18 build//Users/Danny/libmaple/wirish/Print.o
                0x0800a590                _ZTV5Print
 .rodata._ZTV9USBSerial
                0x0800a5a8       0x18 build//Users/Danny/libmaple/wirish/usb_serial.o
                0x0800a5a8                _ZTV9USBSerial
 .rodata.ucExpectedStackBytes.3388
                0x0800a5c0       0x14 build//Users/Danny/libmaple/libraries/FreeRTOS/utility/tasks.o
 .rodata.str1.1
                0x0800a5d4       0xa5 build//Users/Danny/Maple_Workbench/SD/libSD/SD.o
                                 0xa7 (size before relaxing)
 *fill*         0x0800a679        0x3 00
 .rodata.CSWTCH.33
                0x0800a67c        0x8 build//Users/Danny/Maple_Workbench/SD/libSD/SD.o
 .rodata.str1.1
                0x0800a684       0x1f build//Users/Danny/Maple_Workbench/SD/libFAT/FAT.o
 .rodata.str1.1
                0x0800a6a3       0x39 build//Users/Danny/Maple_Workbench/SD/main.o
 .rodata.str1.1
                0x00000000       0x39 /Users/Danny/libmaple/arm/bin/../lib/gcc/arm-none-eabi/4.4.1/../../../../arm-none-eabi/lib/thumb2/libc.a(lib_a-impure.o)
                                  0x2 (size before relaxing)
 .rodata._global_impure_ptr
                0x0800a6dc        0x4 /Users/Danny/libmaple/arm/bin/../lib/gcc/arm-none-eabi/4.4.1/../../../../arm-none-eabi/lib/thumb2/libc.a(lib_a-impure.o)
                0x0800a6dc                _global_impure_ptr
 *(.USER_FLASH)
                0x0800a6e0                . = ALIGN (0x4)
                0x0800a6e0                _lm_rom_img_cfgp = .
                0x0800a6e0        0x4 LONG 0x8009650 LOADADDR (.data)
                [0x20001c68]                _lm_heap_start = DEFINED (_lm_heap_start)?_lm_heap_start:_end
                [0x20005000]                _lm_heap_end = DEFINED (_lm_heap_end)?_lm_heap_end:__msp_init

.bss            0x200017b8      0x4b0
                0x200017b8                . = ALIGN (0x8)
                0x200017b8                _bss = .
 *(.bss .bss.* .gnu.linkonce.b.*)
 .bss           0x200017b8        0x1 /Users/Danny/libmaple/arm/bin/../lib/gcc/arm-none-eabi/4.4.1/thumb2/crtbegin.o
 *fill*         0x200017b9        0x3 00
 .bss.systick_user_callback
                0x200017bc        0x4 build//Users/Danny/libmaple/libmaple/systick.o
 .bss.line_dtr_rts
                0x200017c0        0x1 build//Users/Danny/libmaple/libmaple/usb/stm32f1/usb_cdcacm.o
 *fill*         0x200017c1        0x3 00
 .bss.vcomBufferRx
                0x200017c4       0xc0 build//Users/Danny/libmaple/libmaple/usb/stm32f1/usb_cdcacm.o
 .bss.rx_hook   0x20001884        0x4 build//Users/Danny/libmaple/libmaple/usb/stm32f1/usb_cdcacm.o
 .bss.newBytes  0x20001888        0x4 build//Users/Danny/libmaple/libmaple/usb/stm32f1/usb_cdcacm.o
 .bss.rx_offset
                0x2000188c        0x4 build//Users/Danny/libmaple/libmaple/usb/stm32f1/usb_cdcacm.o
 .bss.countTx   0x20001890        0x4 build//Users/Danny/libmaple/libmaple/usb/stm32f1/usb_cdcacm.o
 .bss.iface_setup_hook
                0x20001894        0x4 build//Users/Danny/libmaple/libmaple/usb/stm32f1/usb_cdcacm.o
 .bss.last_request
                0x20001898        0x1 build//Users/Danny/libmaple/libmaple/usb/stm32f1/usb_cdcacm.o
 .bss.Data_Mul_MaxPacketSize
                0x20001899        0x1 build//Users/Danny/libmaple/libmaple/usb/usb_lib/usb_core.o
                0x20001899                Data_Mul_MaxPacketSize
 *fill*         0x2000189a        0x2 00
 .bss.usart1_rb
                0x2000189c        0xc build//Users/Danny/libmaple/libmaple/stm32f1/usart.o
 .bss.usart2_rb
                0x200018a8        0xc build//Users/Danny/libmaple/libmaple/stm32f1/usart.o
 .bss.usart3_rb
                0x200018b4        0xc build//Users/Danny/libmaple/libmaple/stm32f1/usart.o
 .bss.pbreak.1614
                0x200018c0        0x4 build//Users/Danny/libmaple/wirish/syscalls.o
 .bss.Serial1   0x200018c4        0xc build//Users/Danny/libmaple/wirish/HardwareSerial.o
                0x200018c4                Serial1
 .bss.Serial2   0x200018d0        0xc build//Users/Danny/libmaple/wirish/HardwareSerial.o
                0x200018d0                Serial2
 .bss.Serial3   0x200018dc        0xc build//Users/Danny/libmaple/wirish/HardwareSerial.o
                0x200018dc                Serial3
 .bss.Timer1    0x200018e8        0x4 build//Users/Danny/libmaple/wirish/HardwareTimer.o
                0x200018e8                Timer1
 .bss.Timer2    0x200018ec        0x4 build//Users/Danny/libmaple/wirish/HardwareTimer.o
                0x200018ec                Timer2
 .bss.Timer3    0x200018f0        0x4 build//Users/Danny/libmaple/wirish/HardwareTimer.o
                0x200018f0                Timer3
 .bss.Timer4    0x200018f4        0x4 build//Users/Danny/libmaple/wirish/HardwareTimer.o
                0x200018f4                Timer4
 .bss._ZL7this_id
                0x200018f8        0x1 build//Users/Danny/libmaple/wirish/HardwareTimer.o
 *fill*         0x200018f9        0x3 00
 .bss._ZL9this_devp
                0x200018fc        0x4 build//Users/Danny/libmaple/wirish/HardwareTimer.o
 .bss._ZL11reset_state
                0x20001900        0x1 build//Users/Danny/libmaple/wirish/usb_serial.o
 *fill*         0x20001901        0x3 00
 .bss.SerialUSB
                0x20001904        0x4 build//Users/Danny/libmaple/wirish/usb_serial.o
                0x20001904                SerialUSB
 .bss.uxTopReadyPriority
                0x20001908        0x4 build//Users/Danny/libmaple/libraries/FreeRTOS/utility/tasks.o
 .bss.xTickCount
                0x2000190c        0x4 build//Users/Danny/libmaple/libraries/FreeRTOS/utility/tasks.o
 .bss.pxReadyTasksLists
                0x20001910       0x64 build//Users/Danny/libmaple/libraries/FreeRTOS/utility/tasks.o
 .bss.xTracing  0x20001974        0x4 build//Users/Danny/libmaple/libraries/FreeRTOS/utility/tasks.o
 .bss.xMissedYield
                0x20001978        0x4 build//Users/Danny/libmaple/libraries/FreeRTOS/utility/tasks.o
 .bss.pcTraceBuffer
                0x2000197c        0x4 build//Users/Danny/libmaple/libraries/FreeRTOS/utility/tasks.o
 .bss.pxCurrentTCB
                0x20001980        0x4 build//Users/Danny/libmaple/libraries/FreeRTOS/utility/tasks.o
                0x20001980                pxCurrentTCB
 .bss.uxSchedulerSuspended
                0x20001984        0x4 build//Users/Danny/libmaple/libraries/FreeRTOS/utility/tasks.o
 .bss.pcTraceBufferEnd
                0x20001988        0x4 build//Users/Danny/libmaple/libraries/FreeRTOS/utility/tasks.o
 .bss.sd        0x2000198c      0x220 build//Users/Danny/Maple_Workbench/SD/main.o
                0x2000198c                sd
 .bss.spi       0x20001bac        0x4 build//Users/Danny/Maple_Workbench/SD/main.o
                0x20001bac                spi
 .bss.test      0x20001bb0       0x20 build//Users/Danny/Maple_Workbench/SD/main.o
                0x20001bb0                test
 .bss.partition
                0x20001bd0       0x18 build//Users/Danny/Maple_Workbench/SD/main.o
                0x20001bd0                partition
 .bss.chSel     0x20001be8        0x4 build//Users/Danny/Maple_Workbench/SD/main.o
                0x20001be8                chSel
 .bss.__malloc_max_total_mem
                0x20001bec        0x4 /Users/Danny/libmaple/arm/bin/../lib/gcc/arm-none-eabi/4.4.1/../../../../arm-none-eabi/lib/thumb2/libc.a(lib_a-mallocr.o)
                0x20001bec                __malloc_max_total_mem
 .bss.__malloc_max_sbrked_mem
                0x20001bf0        0x4 /Users/Danny/libmaple/arm/bin/../lib/gcc/arm-none-eabi/4.4.1/../../../../arm-none-eabi/lib/thumb2/libc.a(lib_a-mallocr.o)
                0x20001bf0                __malloc_max_sbrked_mem
 .bss.__malloc_top_pad
                0x20001bf4        0x4 /Users/Danny/libmaple/arm/bin/../lib/gcc/arm-none-eabi/4.4.1/../../../../arm-none-eabi/lib/thumb2/libc.a(lib_a-mallocr.o)
                0x20001bf4                __malloc_top_pad
 .bss.__malloc_current_mallinfo
                0x20001bf8       0x28 /Users/Danny/libmaple/arm/bin/../lib/gcc/arm-none-eabi/4.4.1/../../../../arm-none-eabi/lib/thumb2/libc.a(lib_a-mallocr.o)
                0x20001bf8                __malloc_current_mallinfo
 *(COMMON)
 COMMON         0x20001c20        0x4 build//Users/Danny/libmaple/libmaple/systick.o
                0x20001c20                systick_uptime_millis
 COMMON         0x20001c24        0x6 build//Users/Danny/libmaple/libmaple/usb/stm32f1/usb.o
                0x20001c24                SaveRState
                0x20001c26                SaveTState
                0x20001c28                ResumeS
 *fill*         0x20001c2a        0x2 00
 COMMON         0x20001c2c        0x2 build//Users/Danny/libmaple/libmaple/usb/usb_lib/usb_core.o
                0x20001c2c                StatusInfo
 *fill*         0x20001c2e        0x2 00
 COMMON         0x20001c30       0x32 build//Users/Danny/libmaple/libmaple/usb/usb_lib/usb_init.o
                0x20001c30                SaveState
                0x20001c34                pProperty
                0x20001c38                EPindex
                0x20001c3c                Device_Info
                0x20001c58                pUser_Standard_Requests
                0x20001c5c                pInformation
                0x20001c60                wInterrupt_Mask
 *fill*         0x20001c62        0x2 00
 COMMON         0x20001c64        0x4 /Users/Danny/libmaple/arm/bin/../lib/gcc/arm-none-eabi/4.4.1/../../../../arm-none-eabi/lib/thumb2/libc.a(lib_a-reent.o)
                0x20001c64                errno
                0x20001c68                . = ALIGN (0x8)
                0x20001c68                _ebss = .
                0x20001c68                _end = _ebss

.stab
 *(.stab)

.stabstr
 *(.stabstr)

.debug
 *(.debug)

.line
 *(.line)

.debug_srcinfo
 *(.debug_srcinfo)

.debug_sfnames
 *(.debug_sfnames)

.comment        0x00000000      0x7ce
 .comment       0x00000000       0x12 /Users/Danny/libmaple/arm/bin/../lib/gcc/arm-none-eabi/4.4.1/thumb2/crtbegin.o
 .comment       0x00000012       0x12 build//Users/Danny/libmaple/libmaple/adc.o
 .comment       0x00000024       0x12 build//Users/Danny/libmaple/libmaple/dac.o
 .comment       0x00000036       0x12 build//Users/Danny/libmaple/libmaple/dma.o
 .comment       0x00000048       0x12 build//Users/Danny/libmaple/libmaple/exti.o
 .comment       0x0000005a       0x12 build//Users/Danny/libmaple/libmaple/flash.o
 .comment       0x0000006c       0x12 build//Users/Danny/libmaple/libmaple/gpio.o
 .comment       0x0000007e       0x12 build//Users/Danny/libmaple/libmaple/iwdg.o
 .comment       0x00000090       0x12 build//Users/Danny/libmaple/libmaple/nvic.o
 .comment       0x000000a2       0x12 build//Users/Danny/libmaple/libmaple/pwr.o
 .comment       0x000000b4       0x12 build//Users/Danny/libmaple/libmaple/rcc.o
 .comment       0x000000c6       0x12 build//Users/Danny/libmaple/libmaple/spi.o
 .comment       0x000000d8       0x12 build//Users/Danny/libmaple/libmaple/systick.o
 .comment       0x000000ea       0x12 build//Users/Danny/libmaple/libmaple/timer.o
 .comment       0x000000fc       0x12 build//Users/Danny/libmaple/libmaple/usart.o
 .comment       0x0000010e       0x12 build//Users/Danny/libmaple/libmaple/usart_private.o
 .comment       0x00000120       0x12 build//Users/Danny/libmaple/libmaple/util.o
 .comment       0x00000132       0x12 build//Users/Danny/libmaple/libmaple/i2c.o
 .comment       0x00000144       0x12 build//Users/Danny/libmaple/libmaple/usb/stm32f1/usb.o
 .comment       0x00000156       0x12 build//Users/Danny/libmaple/libmaple/usb/stm32f1/usb_reg_map.o
 .comment       0x00000168       0x12 build//Users/Danny/libmaple/libmaple/usb/stm32f1/usb_cdcacm.o
 .comment       0x0000017a       0x12 build//Users/Danny/libmaple/libmaple/usb/usb_lib/usb_core.o
 .comment       0x0000018c       0x12 build//Users/Danny/libmaple/libmaple/usb/usb_lib/usb_init.o
 .comment       0x0000019e       0x12 build//Users/Danny/libmaple/libmaple/usb/usb_lib/usb_mem.o
 .comment       0x000001b0       0x12 build//Users/Danny/libmaple/libmaple/usb/usb_lib/usb_regs.o
 .comment       0x000001c2       0x12 build//Users/Danny/libmaple/libmaple/stm32f1/adc.o
 .comment       0x000001d4       0x12 build//Users/Danny/libmaple/libmaple/stm32f1/bkp.o
 .comment       0x000001e6       0x12 build//Users/Danny/libmaple/libmaple/stm32f1/dma.o
 .comment       0x000001f8       0x12 build//Users/Danny/libmaple/libmaple/stm32f1/exti.o
 .comment       0x0000020a       0x12 build//Users/Danny/libmaple/libmaple/stm32f1/fsmc.o
 .comment       0x0000021c       0x12 build//Users/Danny/libmaple/libmaple/stm32f1/gpio.o
 .comment       0x0000022e       0x12 build//Users/Danny/libmaple/libmaple/stm32f1/i2c.o
 .comment       0x00000240       0x12 build//Users/Danny/libmaple/libmaple/stm32f1/rcc.o
 .comment       0x00000252       0x12 build//Users/Danny/libmaple/libmaple/stm32f1/spi.o
 .comment       0x00000264       0x12 build//Users/Danny/libmaple/libmaple/stm32f1/timer.o
 .comment       0x00000276       0x12 build//Users/Danny/libmaple/libmaple/stm32f1/usart.o
 .comment       0x00000288       0x12 build//Users/Danny/libmaple/wirish/start_c.o
 .comment       0x0000029a       0x12 build//Users/Danny/libmaple/wirish/syscalls.o
 .comment       0x000002ac       0x12 build//Users/Danny/libmaple/wirish/stm32f1/util_hooks.o
 .comment       0x000002be       0x12 build//Users/Danny/libmaple/wirish/boards.o
 .comment       0x000002d0       0x12 build//Users/Danny/libmaple/wirish/cxxabi-compat.o
 .comment       0x000002e2       0x12 build//Users/Danny/libmaple/wirish/ext_interrupts.o
 .comment       0x000002f4       0x12 build//Users/Danny/libmaple/wirish/HardwareSerial.o
 .comment       0x00000306       0x12 build//Users/Danny/libmaple/wirish/HardwareTimer.o
 .comment       0x00000318       0x12 build//Users/Danny/libmaple/wirish/Print.o
 .comment       0x0000032a       0x12 build//Users/Danny/libmaple/wirish/pwm.o
 .comment       0x0000033c       0x12 build//Users/Danny/libmaple/wirish/usb_serial.o
 .comment       0x0000034e       0x12 build//Users/Danny/libmaple/wirish/HardwareSPI.o
 .comment       0x00000360       0x12 build//Users/Danny/libmaple/wirish/wirish_analog.o
 .comment       0x00000372       0x12 build//Users/Danny/libmaple/wirish/wirish_digital.o
 .comment       0x00000384       0x12 build//Users/Danny/libmaple/wirish/wirish_math.o
 .comment       0x00000396       0x12 build//Users/Danny/libmaple/wirish/wirish_shift.o
 .comment       0x000003a8       0x12 build//Users/Danny/libmaple/wirish/wirish_time.o
 .comment       0x000003ba       0x12 build//Users/Danny/libmaple/wirish/stm32f1/boards_setup.o
 .comment       0x000003cc       0x12 build//Users/Danny/libmaple/wirish/stm32f1/wirish_digital.o
 .comment       0x000003de       0x12 build//Users/Danny/libmaple/wirish/stm32f1/wirish_debug.o
 .comment       0x000003f0       0x12 build//Users/Danny/libmaple/wirish/boards/maple/board.o
 .comment       0x00000402       0x12 build//Users/Danny/libmaple/libraries/Servo/Servo.o
 .comment       0x00000414       0x12 build//Users/Danny/libmaple/libraries/LiquidCrystal/LiquidCrystal.o
 .comment       0x00000426       0x12 build//Users/Danny/libmaple/libraries/Wire/WireBase.o
 .comment       0x00000438       0x12 build//Users/Danny/libmaple/libraries/Wire/HardWire.o
 .comment       0x0000044a       0x12 build//Users/Danny/libmaple/libraries/Wire/Wire.o
 .comment       0x0000045c       0x12 build//Users/Danny/libmaple/libraries/FreeRTOS/utility/croutine.o
 .comment       0x0000046e       0x12 build//Users/Danny/libmaple/libraries/FreeRTOS/utility/heap_2.o
 .comment       0x00000480       0x12 build//Users/Danny/libmaple/libraries/FreeRTOS/utility/list.o
 .comment       0x00000492       0x12 build//Users/Danny/libmaple/libraries/FreeRTOS/utility/port.o
 .comment       0x000004a4       0x12 build//Users/Danny/libmaple/libraries/FreeRTOS/utility/queue.o
 .comment       0x000004b6       0x12 build//Users/Danny/libmaple/libraries/FreeRTOS/utility/timers.o
 .comment       0x000004c8       0x12 build//Users/Danny/libmaple/libraries/FreeRTOS/utility/tasks.o
 .comment       0x000004da       0x12 build//Users/Danny/libmaple/libraries/FreeRTOS/MapleFreeRTOS.o
 .comment       0x000004ec       0x12 build//Users/Danny/Maple_Workbench/SD/libSD/SD.o
 .comment       0x000004fe       0x12 build//Users/Danny/Maple_Workbench/SD/libFAT/FAT.o
 .comment       0x00000510       0x12 build//Users/Danny/Maple_Workbench/SD/main.o
 .comment       0x00000522       0x12 build/main.o
 .comment       0x00000534       0x12 /Users/Danny/libmaple/arm/bin/../lib/gcc/arm-none-eabi/4.4.1/../../../../arm-none-eabi/lib/thumb2/libstdc++.a(atexit_arm.o)
 .comment       0x00000546       0x12 /Users/Danny/libmaple/arm/bin/../lib/gcc/arm-none-eabi/4.4.1/thumb2/libgcc.a(_fixdfdi.o)
 .comment       0x00000558       0x12 /Users/Danny/libmaple/arm/bin/../lib/gcc/arm-none-eabi/4.4.1/thumb2/libgcc.a(_fixunsdfdi.o)
 .comment       0x0000056a       0x12 /Users/Danny/libmaple/arm/bin/../lib/gcc/arm-none-eabi/4.4.1/thumb2/libgcc.a(bpabi.o)
 .comment       0x0000057c       0x12 /Users/Danny/libmaple/arm/bin/../lib/gcc/arm-none-eabi/4.4.1/thumb2/libgcc.a(_divdi3.o)
 .comment       0x0000058e       0x12 /Users/Danny/libmaple/arm/bin/../lib/gcc/arm-none-eabi/4.4.1/thumb2/libgcc.a(_udivdi3.o)
 .comment       0x000005a0       0x12 /Users/Danny/libmaple/arm/bin/../lib/gcc/arm-none-eabi/4.4.1/../../../../arm-none-eabi/lib/thumb2/libc.a(lib_a-cxa_atexit.o)
 .comment       0x000005b2       0x12 /Users/Danny/libmaple/arm/bin/../lib/gcc/arm-none-eabi/4.4.1/../../../../arm-none-eabi/lib/thumb2/libc.a(lib_a-errno.o)
 .comment       0x000005c4       0x12 /Users/Danny/libmaple/arm/bin/../lib/gcc/arm-none-eabi/4.4.1/../../../../arm-none-eabi/lib/thumb2/libc.a(lib_a-impure.o)
 .comment       0x000005d6       0x12 /Users/Danny/libmaple/arm/bin/../lib/gcc/arm-none-eabi/4.4.1/../../../../arm-none-eabi/lib/thumb2/libc.a(lib_a-init.o)
 .comment       0x000005e8       0x12 /Users/Danny/libmaple/arm/bin/../lib/gcc/arm-none-eabi/4.4.1/../../../../arm-none-eabi/lib/thumb2/libc.a(lib_a-malloc.o)
 .comment       0x000005fa       0x12 /Users/Danny/libmaple/arm/bin/../lib/gcc/arm-none-eabi/4.4.1/../../../../arm-none-eabi/lib/thumb2/libc.a(lib_a-mallocr.o)
 .comment       0x0000060c       0x12 /Users/Danny/libmaple/arm/bin/../lib/gcc/arm-none-eabi/4.4.1/../../../../arm-none-eabi/lib/thumb2/libc.a(lib_a-memcmp.o)
 .comment       0x0000061e       0x12 /Users/Danny/libmaple/arm/bin/../lib/gcc/arm-none-eabi/4.4.1/../../../../arm-none-eabi/lib/thumb2/libc.a(lib_a-memcpy.o)
 .comment       0x00000630       0x12 /Users/Danny/libmaple/arm/bin/../lib/gcc/arm-none-eabi/4.4.1/../../../../arm-none-eabi/lib/thumb2/libc.a(lib_a-memset.o)
 .comment       0x00000642       0x12 /Users/Danny/libmaple/arm/bin/../lib/gcc/arm-none-eabi/4.4.1/../../../../arm-none-eabi/lib/thumb2/libc.a(lib_a-mlock.o)
 .comment       0x00000654       0x12 /Users/Danny/libmaple/arm/bin/../lib/gcc/arm-none-eabi/4.4.1/../../../../arm-none-eabi/lib/thumb2/libc.a(lib_a-rand.o)
 .comment       0x00000666       0x12 /Users/Danny/libmaple/arm/bin/../lib/gcc/arm-none-eabi/4.4.1/../../../../arm-none-eabi/lib/thumb2/libc.a(lib_a-sbrkr.o)
 .comment       0x00000678       0x12 /Users/Danny/libmaple/arm/bin/../lib/gcc/arm-none-eabi/4.4.1/../../../../arm-none-eabi/lib/thumb2/libc.a(lib_a-sprintf.o)
 .comment       0x0000068a       0x12 /Users/Danny/libmaple/arm/bin/../lib/gcc/arm-none-eabi/4.4.1/../../../../arm-none-eabi/lib/thumb2/libc.a(lib_a-strcat.o)
 .comment       0x0000069c       0x12 /Users/Danny/libmaple/arm/bin/../lib/gcc/arm-none-eabi/4.4.1/../../../../arm-none-eabi/lib/thumb2/libc.a(lib_a-strlen.o)
 .comment       0x000006ae       0x12 /Users/Danny/libmaple/arm/bin/../lib/gcc/arm-none-eabi/4.4.1/../../../../arm-none-eabi/lib/thumb2/libc.a(lib_a-strncpy.o)
 .comment       0x000006c0       0x12 /Users/Danny/libmaple/arm/bin/../lib/gcc/arm-none-eabi/4.4.1/../../../../arm-none-eabi/lib/thumb2/libc.a(lib_a-svfprintf.o)
 .comment       0x000006d2       0x12 /Users/Danny/libmaple/arm/bin/../lib/gcc/arm-none-eabi/4.4.1/../../../../arm-none-eabi/lib/thumb2/libc.a(lib_a-__atexit.o)
 .comment       0x000006e4       0x12 /Users/Danny/libmaple/arm/bin/../lib/gcc/arm-none-eabi/4.4.1/../../../../arm-none-eabi/lib/thumb2/libc.a(lib_a-dtoa.o)
 .comment       0x000006f6       0x12 /Users/Danny/libmaple/arm/bin/../lib/gcc/arm-none-eabi/4.4.1/../../../../arm-none-eabi/lib/thumb2/libc.a(lib_a-freer.o)
 .comment       0x00000708       0x12 /Users/Danny/libmaple/arm/bin/../lib/gcc/arm-none-eabi/4.4.1/../../../../arm-none-eabi/lib/thumb2/libc.a(lib_a-locale.o)
 .comment       0x0000071a       0x12 /Users/Danny/libmaple/arm/bin/../lib/gcc/arm-none-eabi/4.4.1/../../../../arm-none-eabi/lib/thumb2/libc.a(lib_a-memchr.o)
 .comment       0x0000072c       0x12 /Users/Danny/libmaple/arm/bin/../lib/gcc/arm-none-eabi/4.4.1/../../../../arm-none-eabi/lib/thumb2/libc.a(lib_a-memmove.o)
 .comment       0x0000073e       0x12 /Users/Danny/libmaple/arm/bin/../lib/gcc/arm-none-eabi/4.4.1/../../../../arm-none-eabi/lib/thumb2/libc.a(lib_a-mprec.o)
 .comment       0x00000750       0x12 /Users/Danny/libmaple/arm/bin/../lib/gcc/arm-none-eabi/4.4.1/../../../../arm-none-eabi/lib/thumb2/libc.a(lib_a-reallocr.o)
 .comment       0x00000762       0x12 /Users/Danny/libmaple/arm/bin/../lib/gcc/arm-none-eabi/4.4.1/../../../../arm-none-eabi/lib/thumb2/libc.a(lib_a-reent.o)
 .comment       0x00000774       0x12 /Users/Danny/libmaple/arm/bin/../lib/gcc/arm-none-eabi/4.4.1/../../../../arm-none-eabi/lib/thumb2/libc.a(lib_a-s_isinfd.o)
 .comment       0x00000786       0x12 /Users/Danny/libmaple/arm/bin/../lib/gcc/arm-none-eabi/4.4.1/../../../../arm-none-eabi/lib/thumb2/libc.a(lib_a-s_isnand.o)
 .comment       0x00000798       0x12 /Users/Danny/libmaple/arm/bin/../lib/gcc/arm-none-eabi/4.4.1/../../../../arm-none-eabi/lib/thumb2/libc.a(lib_a-strcmp.o)
 .comment       0x000007aa       0x12 /Users/Danny/libmaple/arm/bin/../lib/gcc/arm-none-eabi/4.4.1/../../../../arm-none-eabi/lib/thumb2/libc.a(lib_a-callocr.o)
 .comment       0x000007bc       0x12 /Users/Danny/libmaple/arm/bin/../lib/gcc/arm-none-eabi/4.4.1/thumb2/crtend.o

.debug_aranges  0x00000000     0x1c70
 *(.debug_aranges)
 .debug_aranges
                0x00000000       0x28 /Users/Danny/libmaple/arm/bin/../lib/gcc/arm-none-eabi/4.4.1/thumb2/crti.o
 .debug_aranges
                0x00000028       0x38 build//Users/Danny/libmaple/libmaple/adc.o
 .debug_aranges
                0x00000060       0x38 build//Users/Danny/libmaple/libmaple/dac.o
 .debug_aranges
                0x00000098       0x28 build//Users/Danny/libmaple/libmaple/dma.o
 .debug_aranges
                0x000000c0       0x70 build//Users/Danny/libmaple/libmaple/exti.o
 .debug_aranges
                0x00000130       0x20 build//Users/Danny/libmaple/libmaple/flash.o
 .debug_aranges
                0x00000150       0x20 build//Users/Danny/libmaple/libmaple/gpio.o
 .debug_aranges
                0x00000170       0x28 build//Users/Danny/libmaple/libmaple/iwdg.o
 .debug_aranges
                0x00000198       0x38 build//Users/Danny/libmaple/libmaple/nvic.o
 .debug_aranges
                0x000001d0       0x20 build//Users/Danny/libmaple/libmaple/pwr.o
 .debug_aranges
                0x000001f0       0x58 build//Users/Danny/libmaple/libmaple/rcc.o
 .debug_aranges
                0x00000248       0x78 build//Users/Danny/libmaple/libmaple/spi.o
 .debug_aranges
                0x000002c0       0x40 build//Users/Danny/libmaple/libmaple/systick.o
 .debug_aranges
                0x00000300       0x78 build//Users/Danny/libmaple/libmaple/timer.o
 .debug_aranges
                0x00000378       0x48 build//Users/Danny/libmaple/libmaple/usart.o
 .debug_aranges
                0x000003c0       0x20 build//Users/Danny/libmaple/libmaple/usart_private.o
 .debug_aranges
                0x000003e0       0x58 build//Users/Danny/libmaple/libmaple/util.o
 .debug_aranges
                0x00000438       0xa8 build//Users/Danny/libmaple/libmaple/i2c.o
 .debug_aranges
                0x000004e0       0x58 build//Users/Danny/libmaple/libmaple/usb/stm32f1/usb.o
 .debug_aranges
                0x00000538       0x38 build//Users/Danny/libmaple/libmaple/usb/stm32f1/usb_reg_map.o
 .debug_aranges
                0x00000570      0x110 build//Users/Danny/libmaple/libmaple/usb/stm32f1/usb_cdcacm.o
 .debug_aranges
                0x00000680       0x98 build//Users/Danny/libmaple/libmaple/usb/usb_lib/usb_core.o
 .debug_aranges
                0x00000718       0x20 build//Users/Danny/libmaple/libmaple/usb/usb_lib/usb_init.o
 .debug_aranges
                0x00000738       0x28 build//Users/Danny/libmaple/libmaple/usb/usb_lib/usb_mem.o
 .debug_aranges
                0x00000760      0x1f0 build//Users/Danny/libmaple/libmaple/usb/usb_lib/usb_regs.o
 .debug_aranges
                0x00000950       0x48 build//Users/Danny/libmaple/libmaple/stm32f1/adc.o
 .debug_aranges
                0x00000998       0x50 build//Users/Danny/libmaple/libmaple/stm32f1/bkp.o
 .debug_aranges
                0x000009e8       0xe0 build//Users/Danny/libmaple/libmaple/stm32f1/dma.o
 .debug_aranges
                0x00000ac8       0x20 build//Users/Danny/libmaple/libmaple/stm32f1/exti.o
 .debug_aranges
                0x00000ae8       0x38 build//Users/Danny/libmaple/libmaple/stm32f1/gpio.o
 .debug_aranges
                0x00000b20       0x68 build//Users/Danny/libmaple/libmaple/stm32f1/i2c.o
 .debug_aranges
                0x00000b88       0x48 build//Users/Danny/libmaple/libmaple/stm32f1/rcc.o
 .debug_aranges
                0x00000bd0       0x28 build//Users/Danny/libmaple/libmaple/stm32f1/spi.o
 .debug_aranges
                0x00000bf8       0x50 build//Users/Danny/libmaple/libmaple/stm32f1/timer.o
 .debug_aranges
                0x00000c48       0x50 build//Users/Danny/libmaple/libmaple/stm32f1/usart.o
 .debug_aranges
                0x00000c98       0x20 build//Users/Danny/libmaple/wirish/start_c.o
 .debug_aranges
                0x00000cb8       0x80 build//Users/Danny/libmaple/wirish/syscalls.o
 .debug_aranges
                0x00000d38       0x38 build//Users/Danny/libmaple/wirish/stm32f1/util_hooks.o
 .debug_aranges
                0x00000d70       0x48 build//Users/Danny/libmaple/wirish/boards.o
 .debug_aranges
                0x00000db8       0x20 build//Users/Danny/libmaple/wirish/cxxabi-compat.o
 .debug_aranges
                0x00000dd8       0x28 build//Users/Danny/libmaple/wirish/ext_interrupts.o
 .debug_aranges
                0x00000e00       0x68 build//Users/Danny/libmaple/wirish/HardwareSerial.o
 .debug_aranges
                0x00000e68       0xc8 build//Users/Danny/libmaple/wirish/HardwareTimer.o
 .debug_aranges
                0x00000f30       0xe0 build//Users/Danny/libmaple/wirish/Print.o
 .debug_aranges
                0x00001010       0x20 build//Users/Danny/libmaple/wirish/pwm.o
 .debug_aranges
                0x00001030       0xb0 build//Users/Danny/libmaple/wirish/usb_serial.o
 .debug_aranges
                0x000010e0       0xd0 build//Users/Danny/libmaple/wirish/HardwareSPI.o
 .debug_aranges
                0x000011b0       0x20 build//Users/Danny/libmaple/wirish/wirish_analog.o
 .debug_aranges
                0x000011d0       0x40 build//Users/Danny/libmaple/wirish/wirish_digital.o
 .debug_aranges
                0x00001210       0x30 build//Users/Danny/libmaple/wirish/wirish_math.o
 .debug_aranges
                0x00001240       0x20 build//Users/Danny/libmaple/wirish/wirish_shift.o
 .debug_aranges
                0x00001260       0x28 build//Users/Danny/libmaple/wirish/wirish_time.o
 .debug_aranges
                0x00001288       0x40 build//Users/Danny/libmaple/wirish/stm32f1/boards_setup.o
 .debug_aranges
                0x000012c8       0x20 build//Users/Danny/libmaple/wirish/stm32f1/wirish_digital.o
 .debug_aranges
                0x000012e8       0x30 build//Users/Danny/libmaple/wirish/stm32f1/wirish_debug.o
 .debug_aranges
                0x00001318       0x20 build//Users/Danny/libmaple/wirish/boards/maple/board.o
 .debug_aranges
                0x00001338       0x78 build//Users/Danny/libmaple/libraries/Servo/Servo.o
 .debug_aranges
                0x000013b0      0x120 build//Users/Danny/libmaple/libraries/LiquidCrystal/LiquidCrystal.o
 .debug_aranges
                0x000014d0       0x80 build//Users/Danny/libmaple/libraries/Wire/WireBase.o
 .debug_aranges
                0x00001550       0x58 build//Users/Danny/libmaple/libraries/Wire/HardWire.o
 .debug_aranges
                0x000015a8       0xa0 build//Users/Danny/libmaple/libraries/Wire/Wire.o
 .debug_aranges
                0x00001648       0x38 build//Users/Danny/libmaple/libraries/FreeRTOS/utility/croutine.o
 .debug_aranges
                0x00001680       0x38 build//Users/Danny/libmaple/libraries/FreeRTOS/utility/heap_2.o
 .debug_aranges
                0x000016b8       0x40 build//Users/Danny/libmaple/libraries/FreeRTOS/utility/list.o
 .debug_aranges
                0x000016f8       0x68 build//Users/Danny/libmaple/libraries/FreeRTOS/utility/port.o
 .debug_aranges
                0x00001760       0xa0 build//Users/Danny/libmaple/libraries/FreeRTOS/utility/queue.o
 .debug_aranges
                0x00001800      0x120 build//Users/Danny/libmaple/libraries/FreeRTOS/utility/tasks.o
 .debug_aranges
                0x00001920       0x20 build//Users/Danny/libmaple/libraries/FreeRTOS/MapleFreeRTOS.o
 .debug_aranges
                0x00001940       0x68 build//Users/Danny/Maple_Workbench/SD/libSD/SD.o
 .debug_aranges
                0x000019a8       0x80 build//Users/Danny/Maple_Workbench/SD/libFAT/FAT.o
 .debug_aranges
                0x00001a28       0x40 build//Users/Danny/Maple_Workbench/SD/main.o
 .debug_aranges
                0x00001a68       0x20 /Users/Danny/libmaple/arm/bin/../lib/gcc/arm-none-eabi/4.4.1/../../../../arm-none-eabi/lib/thumb2/libstdc++.a(atexit_arm.o)
 .debug_aranges
                0x00001a88       0x20 /Users/Danny/libmaple/arm/bin/../lib/gcc/arm-none-eabi/4.4.1/thumb2/libgcc.a(_arm_addsubdf3.o)
 .debug_aranges
                0x00001aa8       0x20 /Users/Danny/libmaple/arm/bin/../lib/gcc/arm-none-eabi/4.4.1/thumb2/libgcc.a(_arm_muldivdf3.o)
 .debug_aranges
                0x00001ac8       0x20 /Users/Danny/libmaple/arm/bin/../lib/gcc/arm-none-eabi/4.4.1/thumb2/libgcc.a(_arm_cmpdf2.o)
 .debug_aranges
                0x00001ae8       0x20 /Users/Danny/libmaple/arm/bin/../lib/gcc/arm-none-eabi/4.4.1/thumb2/libgcc.a(_arm_fixdfsi.o)
 .debug_aranges
                0x00001b08       0x20 /Users/Danny/libmaple/arm/bin/../lib/gcc/arm-none-eabi/4.4.1/thumb2/libgcc.a(_aeabi_uldivmod.o)
 .debug_aranges
                0x00001b28       0x20 /Users/Danny/libmaple/arm/bin/../lib/gcc/arm-none-eabi/4.4.1/thumb2/libgcc.a(_fixdfdi.o)
 .debug_aranges
                0x00001b48       0x20 /Users/Danny/libmaple/arm/bin/../lib/gcc/arm-none-eabi/4.4.1/thumb2/libgcc.a(_fixunsdfdi.o)
 .debug_aranges
                0x00001b68       0x20 /Users/Danny/libmaple/arm/bin/../lib/gcc/arm-none-eabi/4.4.1/thumb2/libgcc.a(bpabi.o)
 .debug_aranges
                0x00001b88       0x20 /Users/Danny/libmaple/arm/bin/../lib/gcc/arm-none-eabi/4.4.1/thumb2/libgcc.a(_dvmd_tls.o)
 .debug_aranges
                0x00001ba8       0x20 /Users/Danny/libmaple/arm/bin/../lib/gcc/arm-none-eabi/4.4.1/thumb2/libgcc.a(_arm_fixunsdfsi.o)
 .debug_aranges
                0x00001bc8       0x20 /Users/Danny/libmaple/arm/bin/../lib/gcc/arm-none-eabi/4.4.1/thumb2/libgcc.a(_divdi3.o)
 .debug_aranges
                0x00001be8       0x20 /Users/Danny/libmaple/arm/bin/../lib/gcc/arm-none-eabi/4.4.1/thumb2/libgcc.a(_udivdi3.o)
 .debug_aranges
                0x00001c08       0x20 /Users/Danny/libmaple/arm/bin/../lib/gcc/arm-none-eabi/4.4.1/thumb2/libgcc.a(_udivsi3.o)
 .debug_aranges
                0x00001c28       0x20 /Users/Danny/libmaple/arm/bin/../lib/gcc/arm-none-eabi/4.4.1/thumb2/libgcc.a(_divsi3.o)
 .debug_aranges
                0x00001c48       0x28 /Users/Danny/libmaple/arm/bin/../lib/gcc/arm-none-eabi/4.4.1/thumb2/crtn.o

.debug_pubnames
                0x00000000     0x362b
 *(.debug_pubnames)
 .debug_pubnames
                0x00000000       0x57 build//Users/Danny/libmaple/libmaple/adc.o
 .debug_pubnames
                0x00000057       0x64 build//Users/Danny/libmaple/libmaple/dac.o
 .debug_pubnames
                0x000000bb       0x32 build//Users/Danny/libmaple/libmaple/dma.o
 .debug_pubnames
                0x000000ed       0xcf build//Users/Danny/libmaple/libmaple/exti.o
 .debug_pubnames
                0x000001bc       0x28 build//Users/Danny/libmaple/libmaple/flash.o
 .debug_pubnames
                0x000001e4       0x20 build//Users/Danny/libmaple/libmaple/gpio.o
 .debug_pubnames
                0x00000204       0x2e build//Users/Danny/libmaple/libmaple/iwdg.o
 .debug_pubnames
                0x00000232       0x67 build//Users/Danny/libmaple/libmaple/nvic.o
 .debug_pubnames
                0x00000299       0x1f build//Users/Danny/libmaple/libmaple/pwr.o
 .debug_pubnames
                0x000002b8       0x88 build//Users/Danny/libmaple/libmaple/rcc.o
 .debug_pubnames
                0x00000340       0xe4 build//Users/Danny/libmaple/libmaple/spi.o
 .debug_pubnames
                0x00000424       0x92 build//Users/Danny/libmaple/libmaple/systick.o
 .debug_pubnames
                0x000004b6       0xd3 build//Users/Danny/libmaple/libmaple/timer.o
 .debug_pubnames
                0x00000589       0x70 build//Users/Danny/libmaple/libmaple/usart.o
 .debug_pubnames
                0x000005f9       0x28 build//Users/Danny/libmaple/libmaple/usart_private.o
 .debug_pubnames
                0x00000621       0x4e build//Users/Danny/libmaple/libmaple/util.o
 .debug_pubnames
                0x0000066f       0x8b build//Users/Danny/libmaple/libmaple/i2c.o
 .debug_pubnames
                0x000006fa       0x74 build//Users/Danny/libmaple/libmaple/usb/stm32f1/usb.o
 .debug_pubnames
                0x0000076e       0x54 build//Users/Danny/libmaple/libmaple/usb/stm32f1/usb_reg_map.o
 .debug_pubnames
                0x000007c2      0x227 build//Users/Danny/libmaple/libmaple/usb/stm32f1/usb_cdcacm.o
 .debug_pubnames
                0x000009e9      0x1a5 build//Users/Danny/libmaple/libmaple/usb/usb_lib/usb_core.o
 .debug_pubnames
                0x00000b8e       0x98 build//Users/Danny/libmaple/libmaple/usb/usb_lib/usb_init.o
 .debug_pubnames
                0x00000c26       0x42 build//Users/Danny/libmaple/libmaple/usb/usb_lib/usb_mem.o
 .debug_pubnames
                0x00000c68      0x419 build//Users/Danny/libmaple/libmaple/usb/usb_lib/usb_regs.o
 .debug_pubnames
                0x00001081       0x8e build//Users/Danny/libmaple/libmaple/stm32f1/adc.o
 .debug_pubnames
                0x0000110f       0x77 build//Users/Danny/libmaple/libmaple/stm32f1/bkp.o
 .debug_pubnames
                0x00001186      0x1ab build//Users/Danny/libmaple/libmaple/stm32f1/dma.o
 .debug_pubnames
                0x00001331       0x22 build//Users/Danny/libmaple/libmaple/stm32f1/exti.o
 .debug_pubnames
                0x00001353       0xa3 build//Users/Danny/libmaple/libmaple/stm32f1/gpio.o
 .debug_pubnames
                0x000013f6       0xb8 build//Users/Danny/libmaple/libmaple/stm32f1/i2c.o
 .debug_pubnames
                0x000014ae       0x86 build//Users/Danny/libmaple/libmaple/stm32f1/rcc.o
 .debug_pubnames
                0x00001534       0x49 build//Users/Danny/libmaple/libmaple/stm32f1/spi.o
 .debug_pubnames
                0x0000157d       0x8d build//Users/Danny/libmaple/libmaple/stm32f1/timer.o
 .debug_pubnames
                0x0000160a       0xad build//Users/Danny/libmaple/libmaple/stm32f1/usart.o
 .debug_pubnames
                0x000016b7       0x1e build//Users/Danny/libmaple/wirish/start_c.o
 .debug_pubnames
                0x000016d5       0x9b build//Users/Danny/libmaple/wirish/syscalls.o
 .debug_pubnames
                0x00001770       0x3d build//Users/Danny/libmaple/wirish/stm32f1/util_hooks.o
 .debug_pubnames
                0x000017ad       0x3a build//Users/Danny/libmaple/wirish/boards.o
 .debug_pubnames
                0x000017e7       0x29 build//Users/Danny/libmaple/wirish/cxxabi-compat.o
 .debug_pubnames
                0x00001810       0x3a build//Users/Danny/libmaple/wirish/ext_interrupts.o
 .debug_pubnames
                0x0000184a      0x12a build//Users/Danny/libmaple/wirish/HardwareSerial.o
 .debug_pubnames
                0x00001974      0x248 build//Users/Danny/libmaple/wirish/HardwareTimer.o
 .debug_pubnames
                0x00001bbc      0x1dc build//Users/Danny/libmaple/wirish/Print.o
 .debug_pubnames
                0x00001d98       0x1f build//Users/Danny/libmaple/wirish/pwm.o
 .debug_pubnames
                0x00001db7      0x169 build//Users/Danny/libmaple/wirish/usb_serial.o
 .debug_pubnames
                0x00001f20      0x1df build//Users/Danny/libmaple/wirish/HardwareSPI.o
 .debug_pubnames
                0x000020ff       0x21 build//Users/Danny/libmaple/wirish/wirish_analog.o
 .debug_pubnames
                0x00002120       0x6c build//Users/Danny/libmaple/wirish/wirish_digital.o
 .debug_pubnames
                0x0000218c       0x37 build//Users/Danny/libmaple/wirish/wirish_math.o
 .debug_pubnames
                0x000021c3       0x1f build//Users/Danny/libmaple/wirish/wirish_shift.o
 .debug_pubnames
                0x000021e2       0x32 build//Users/Danny/libmaple/wirish/wirish_time.o
 .debug_pubnames
                0x00002214       0xb0 build//Users/Danny/libmaple/wirish/stm32f1/boards_setup.o
 .debug_pubnames
                0x000022c4       0x1e build//Users/Danny/libmaple/wirish/stm32f1/wirish_digital.o
 .debug_pubnames
                0x000022e2       0x3d build//Users/Danny/libmaple/wirish/stm32f1/wirish_debug.o
 .debug_pubnames
                0x0000231f       0x52 build//Users/Danny/libmaple/wirish/boards/maple/board.o
 .debug_pubnames
                0x00002371       0xdd build//Users/Danny/libmaple/libraries/Servo/Servo.o
 .debug_pubnames
                0x0000244e      0x3d8 build//Users/Danny/libmaple/libraries/LiquidCrystal/LiquidCrystal.o
 .debug_pubnames
                0x00002826      0x145 build//Users/Danny/libmaple/libraries/Wire/WireBase.o
 .debug_pubnames
                0x0000296b       0xb5 build//Users/Danny/libmaple/libraries/Wire/HardWire.o
 .debug_pubnames
                0x00002a20      0x199 build//Users/Danny/libmaple/libraries/Wire/Wire.o
 .debug_pubnames
                0x00002bb9       0x96 build//Users/Danny/libmaple/libraries/FreeRTOS/utility/croutine.o
 .debug_pubnames
                0x00002c4f       0x64 build//Users/Danny/libmaple/libraries/FreeRTOS/utility/heap_2.o
 .debug_pubnames
                0x00002cb3       0x71 build//Users/Danny/libmaple/libraries/FreeRTOS/utility/list.o
 .debug_pubnames
                0x00002d24      0x101 build//Users/Danny/libmaple/libraries/FreeRTOS/utility/port.o
 .debug_pubnames
                0x00002e25      0x183 build//Users/Danny/libmaple/libraries/FreeRTOS/utility/queue.o
 .debug_pubnames
                0x00002fa8      0x2c0 build//Users/Danny/libmaple/libraries/FreeRTOS/utility/tasks.o
 .debug_pubnames
                0x00003268       0x34 build//Users/Danny/libmaple/libraries/FreeRTOS/MapleFreeRTOS.o
 .debug_pubnames
                0x0000329c       0xd9 build//Users/Danny/Maple_Workbench/SD/libSD/SD.o
 .debug_pubnames
                0x00003375      0x14d build//Users/Danny/Maple_Workbench/SD/libFAT/FAT.o
 .debug_pubnames
                0x000034c2       0x7d build//Users/Danny/Maple_Workbench/SD/main.o
 .debug_pubnames
                0x0000353f       0x25 /Users/Danny/libmaple/arm/bin/../lib/gcc/arm-none-eabi/4.4.1/../../../../arm-none-eabi/lib/thumb2/libstdc++.a(atexit_arm.o)
 .debug_pubnames
                0x00003564       0x20 /Users/Danny/libmaple/arm/bin/../lib/gcc/arm-none-eabi/4.4.1/thumb2/libgcc.a(_fixdfdi.o)
 .debug_pubnames
                0x00003584       0x23 /Users/Danny/libmaple/arm/bin/../lib/gcc/arm-none-eabi/4.4.1/thumb2/libgcc.a(_fixunsdfdi.o)
 .debug_pubnames
                0x000035a7       0x45 /Users/Danny/libmaple/arm/bin/../lib/gcc/arm-none-eabi/4.4.1/thumb2/libgcc.a(bpabi.o)
 .debug_pubnames
                0x000035ec       0x1f /Users/Danny/libmaple/arm/bin/../lib/gcc/arm-none-eabi/4.4.1/thumb2/libgcc.a(_divdi3.o)
 .debug_pubnames
                0x0000360b       0x20 /Users/Danny/libmaple/arm/bin/../lib/gcc/arm-none-eabi/4.4.1/thumb2/libgcc.a(_udivdi3.o)

.debug_info     0x00000000    0x27fac
 *(.debug_info .gnu.linkonce.wi.*)
 .debug_info    0x00000000       0x8f /Users/Danny/libmaple/arm/bin/../lib/gcc/arm-none-eabi/4.4.1/thumb2/crti.o
 .debug_info    0x0000008f      0x55f build//Users/Danny/libmaple/libmaple/adc.o
 .debug_info    0x000005ee      0x4f7 build//Users/Danny/libmaple/libmaple/dac.o
 .debug_info    0x00000ae5      0x707 build//Users/Danny/libmaple/libmaple/dma.o
 .debug_info    0x000011ec      0xad4 build//Users/Danny/libmaple/libmaple/exti.o
 .debug_info    0x00001cc0      0x11a build//Users/Danny/libmaple/libmaple/flash.o
 .debug_info    0x00001dda      0x2df build//Users/Danny/libmaple/libmaple/gpio.o
 .debug_info    0x000020b9      0x146 build//Users/Danny/libmaple/libmaple/iwdg.o
 .debug_info    0x000021ff      0x53a build//Users/Danny/libmaple/libmaple/nvic.o
 .debug_info    0x00002739      0x199 build//Users/Danny/libmaple/libmaple/pwr.o
 .debug_info    0x000028d2      0x4bb build//Users/Danny/libmaple/libmaple/rcc.o
 .debug_info    0x00002d8d      0x973 build//Users/Danny/libmaple/libmaple/spi.o
 .debug_info    0x00003700      0x167 build//Users/Danny/libmaple/libmaple/systick.o
 .debug_info    0x00003867      0xfdc build//Users/Danny/libmaple/libmaple/timer.o
 .debug_info    0x00004843      0xa50 build//Users/Danny/libmaple/libmaple/usart.o
 .debug_info    0x00005293      0x55e build//Users/Danny/libmaple/libmaple/usart_private.o
 .debug_info    0x000057f1      0x8b5 build//Users/Danny/libmaple/libmaple/util.o
 .debug_info    0x000060a6     0x1060 build//Users/Danny/libmaple/libmaple/i2c.o
 .debug_info    0x00007106      0xb2e build//Users/Danny/libmaple/libmaple/usb/stm32f1/usb.o
 .debug_info    0x00007c34      0x2ea build//Users/Danny/libmaple/libmaple/usb/stm32f1/usb_reg_map.o
 .debug_info    0x00007f1e     0x1ae0 build//Users/Danny/libmaple/libmaple/usb/stm32f1/usb_cdcacm.o
 .debug_info    0x000099fe      0xbfd build//Users/Danny/libmaple/libmaple/usb/usb_lib/usb_core.o
 .debug_info    0x0000a5fb      0x454 build//Users/Danny/libmaple/libmaple/usb/usb_lib/usb_init.o
 .debug_info    0x0000aa4f      0x16d build//Users/Danny/libmaple/libmaple/usb/usb_lib/usb_mem.o
 .debug_info    0x0000abbc      0xcc3 build//Users/Danny/libmaple/libmaple/usb/usb_lib/usb_regs.o
 .debug_info    0x0000b87f      0x7ab build//Users/Danny/libmaple/libmaple/stm32f1/adc.o
 .debug_info    0x0000c02a      0x484 build//Users/Danny/libmaple/libmaple/stm32f1/bkp.o
 .debug_info    0x0000c4ae     0x15b8 build//Users/Danny/libmaple/libmaple/stm32f1/dma.o
 .debug_info    0x0000da66      0x1d9 build//Users/Danny/libmaple/libmaple/stm32f1/exti.o
 .debug_info    0x0000dc3f       0x25 build//Users/Danny/libmaple/libmaple/stm32f1/fsmc.o
 .debug_info    0x0000dc64      0x5b5 build//Users/Danny/libmaple/libmaple/stm32f1/gpio.o
 .debug_info    0x0000e219      0x9cb build//Users/Danny/libmaple/libmaple/stm32f1/i2c.o
 .debug_info    0x0000ebe4      0x84b build//Users/Danny/libmaple/libmaple/stm32f1/rcc.o
 .debug_info    0x0000f42f      0x6cf build//Users/Danny/libmaple/libmaple/stm32f1/spi.o
 .debug_info    0x0000fafe      0xd24 build//Users/Danny/libmaple/libmaple/stm32f1/timer.o
 .debug_info    0x00010822      0x9c7 build//Users/Danny/libmaple/libmaple/stm32f1/usart.o
 .debug_info    0x000111e9      0x10e build//Users/Danny/libmaple/wirish/start_c.o
 .debug_info    0x000112f7      0x54a build//Users/Danny/libmaple/wirish/syscalls.o
 .debug_info    0x00011841      0xabe build//Users/Danny/libmaple/wirish/stm32f1/util_hooks.o
 .debug_info    0x000122ff      0xf3a build//Users/Danny/libmaple/wirish/boards.o
 .debug_info    0x00013239       0x3c build//Users/Danny/libmaple/wirish/cxxabi-compat.o
 .debug_info    0x00013275      0xa68 build//Users/Danny/libmaple/wirish/ext_interrupts.o
 .debug_info    0x00013cdd     0x12f1 build//Users/Danny/libmaple/wirish/HardwareSerial.o
 .debug_info    0x00014fce     0x1392 build//Users/Danny/libmaple/wirish/HardwareTimer.o
 .debug_info    0x00016360      0xb0c build//Users/Danny/libmaple/wirish/Print.o
 .debug_info    0x00016e6c      0x9ad build//Users/Danny/libmaple/wirish/pwm.o
 .debug_info    0x00017819      0xbcf build//Users/Danny/libmaple/wirish/usb_serial.o
 .debug_info    0x000183e8     0x180a build//Users/Danny/libmaple/wirish/HardwareSPI.o
 .debug_info    0x00019bf2      0x91f build//Users/Danny/libmaple/wirish/wirish_analog.o
 .debug_info    0x0001a511      0xb2f build//Users/Danny/libmaple/wirish/wirish_digital.o
 .debug_info    0x0001b040      0x135 build//Users/Danny/libmaple/wirish/wirish_math.o
 .debug_info    0x0001b175      0x13a build//Users/Danny/libmaple/wirish/wirish_shift.o
 .debug_info    0x0001b2af      0x122 build//Users/Danny/libmaple/wirish/wirish_time.o
 .debug_info    0x0001b3d1      0x408 build//Users/Danny/libmaple/wirish/stm32f1/boards_setup.o
 .debug_info    0x0001b7d9      0x9ed build//Users/Danny/libmaple/wirish/stm32f1/wirish_digital.o
 .debug_info    0x0001c1c6      0x189 build//Users/Danny/libmaple/wirish/stm32f1/wirish_debug.o
 .debug_info    0x0001c34f      0xa24 build//Users/Danny/libmaple/wirish/boards/maple/board.o
 .debug_info    0x0001cd73      0xff2 build//Users/Danny/libmaple/libraries/Servo/Servo.o
 .debug_info    0x0001dd65     0x1096 build//Users/Danny/libmaple/libraries/LiquidCrystal/LiquidCrystal.o
 .debug_info    0x0001edfb      0xc8e build//Users/Danny/libmaple/libraries/Wire/WireBase.o
 .debug_info    0x0001fa89      0x9de build//Users/Danny/libmaple/libraries/Wire/HardWire.o
 .debug_info    0x00020467      0xd69 build//Users/Danny/libmaple/libraries/Wire/Wire.o
 .debug_info    0x000211d0      0x4e0 build//Users/Danny/libmaple/libraries/FreeRTOS/utility/croutine.o
 .debug_info    0x000216b0      0x2b2 build//Users/Danny/libmaple/libraries/FreeRTOS/utility/heap_2.o
 .debug_info    0x00021962      0x2a4 build//Users/Danny/libmaple/libraries/FreeRTOS/utility/list.o
 .debug_info    0x00021c06      0x1b2 build//Users/Danny/libmaple/libraries/FreeRTOS/utility/port.o
 .debug_info    0x00021db8      0x86f build//Users/Danny/libmaple/libraries/FreeRTOS/utility/queue.o
 .debug_info    0x00022627       0x53 build//Users/Danny/libmaple/libraries/FreeRTOS/utility/timers.o
 .debug_info    0x0002267a     0x1017 build//Users/Danny/libmaple/libraries/FreeRTOS/utility/tasks.o
 .debug_info    0x00023691       0xf6 build//Users/Danny/libmaple/libraries/FreeRTOS/MapleFreeRTOS.o
 .debug_info    0x00023787     0x1079 build//Users/Danny/Maple_Workbench/SD/libSD/SD.o
 .debug_info    0x00024800     0x10f7 build//Users/Danny/Maple_Workbench/SD/libFAT/FAT.o
 .debug_info    0x000258f7      0xf36 build//Users/Danny/Maple_Workbench/SD/main.o
 .debug_info    0x0002682d       0x25 build/main.o
 .debug_info    0x00026852       0xd2 /Users/Danny/libmaple/arm/bin/../lib/gcc/arm-none-eabi/4.4.1/../../../../arm-none-eabi/lib/thumb2/libstdc++.a(atexit_arm.o)
 .debug_info    0x00026924       0xbf /Users/Danny/libmaple/arm/bin/../lib/gcc/arm-none-eabi/4.4.1/thumb2/libgcc.a(_arm_addsubdf3.o)
 .debug_info    0x000269e3       0xbf /Users/Danny/libmaple/arm/bin/../lib/gcc/arm-none-eabi/4.4.1/thumb2/libgcc.a(_arm_muldivdf3.o)
 .debug_info    0x00026aa2       0xbf /Users/Danny/libmaple/arm/bin/../lib/gcc/arm-none-eabi/4.4.1/thumb2/libgcc.a(_arm_cmpdf2.o)
 .debug_info    0x00026b61       0xbf /Users/Danny/libmaple/arm/bin/../lib/gcc/arm-none-eabi/4.4.1/thumb2/libgcc.a(_arm_fixdfsi.o)
 .debug_info    0x00026c20       0xba /Users/Danny/libmaple/arm/bin/../lib/gcc/arm-none-eabi/4.4.1/thumb2/libgcc.a(_aeabi_uldivmod.o)
 .debug_info    0x00026cda       0xca /Users/Danny/libmaple/arm/bin/../lib/gcc/arm-none-eabi/4.4.1/thumb2/libgcc.a(_fixdfdi.o)
 .debug_info    0x00026da4       0xf4 /Users/Danny/libmaple/arm/bin/../lib/gcc/arm-none-eabi/4.4.1/thumb2/libgcc.a(_fixunsdfdi.o)
 .debug_info    0x00026e98       0xe2 /Users/Danny/libmaple/arm/bin/../lib/gcc/arm-none-eabi/4.4.1/thumb2/libgcc.a(bpabi.o)
 .debug_info    0x00026f7a       0xc0 /Users/Danny/libmaple/arm/bin/../lib/gcc/arm-none-eabi/4.4.1/thumb2/libgcc.a(_dvmd_tls.o)
 .debug_info    0x0002703a       0xbf /Users/Danny/libmaple/arm/bin/../lib/gcc/arm-none-eabi/4.4.1/thumb2/libgcc.a(_arm_fixunsdfsi.o)
 .debug_info    0x000270f9      0x665 /Users/Danny/libmaple/arm/bin/../lib/gcc/arm-none-eabi/4.4.1/thumb2/libgcc.a(_divdi3.o)
 .debug_info    0x0002775e      0x63f /Users/Danny/libmaple/arm/bin/../lib/gcc/arm-none-eabi/4.4.1/thumb2/libgcc.a(_udivdi3.o)
 .debug_info    0x00027d9d       0xc0 /Users/Danny/libmaple/arm/bin/../lib/gcc/arm-none-eabi/4.4.1/thumb2/libgcc.a(_udivsi3.o)
 .debug_info    0x00027e5d       0xc0 /Users/Danny/libmaple/arm/bin/../lib/gcc/arm-none-eabi/4.4.1/thumb2/libgcc.a(_divsi3.o)
 .debug_info    0x00027f1d       0x8f /Users/Danny/libmaple/arm/bin/../lib/gcc/arm-none-eabi/4.4.1/thumb2/crtn.o

.debug_abbrev   0x00000000     0x8985
 *(.debug_abbrev)
 .debug_abbrev  0x00000000       0x12 /Users/Danny/libmaple/arm/bin/../lib/gcc/arm-none-eabi/4.4.1/thumb2/crti.o
 .debug_abbrev  0x00000012      0x1a1 build//Users/Danny/libmaple/libmaple/adc.o
 .debug_abbrev  0x000001b3      0x12c build//Users/Danny/libmaple/libmaple/dac.o
 .debug_abbrev  0x000002df      0x14b build//Users/Danny/libmaple/libmaple/dma.o
 .debug_abbrev  0x0000042a      0x1f3 build//Users/Danny/libmaple/libmaple/exti.o
 .debug_abbrev  0x0000061d       0xa0 build//Users/Danny/libmaple/libmaple/flash.o
 .debug_abbrev  0x000006bd       0xd0 build//Users/Danny/libmaple/libmaple/gpio.o
 .debug_abbrev  0x0000078d       0xaf build//Users/Danny/libmaple/libmaple/iwdg.o
 .debug_abbrev  0x0000083c      0x133 build//Users/Danny/libmaple/libmaple/nvic.o
 .debug_abbrev  0x0000096f       0x59 build//Users/Danny/libmaple/libmaple/pwr.o
 .debug_abbrev  0x000009c8      0x1aa build//Users/Danny/libmaple/libmaple/rcc.o
 .debug_abbrev  0x00000b72      0x24c build//Users/Danny/libmaple/libmaple/spi.o
 .debug_abbrev  0x00000dbe       0xeb build//Users/Danny/libmaple/libmaple/systick.o
 .debug_abbrev  0x00000ea9      0x34e build//Users/Danny/libmaple/libmaple/timer.o
 .debug_abbrev  0x000011f7      0x297 build//Users/Danny/libmaple/libmaple/usart.o
 .debug_abbrev  0x0000148e      0x118 build//Users/Danny/libmaple/libmaple/usart_private.o
 .debug_abbrev  0x000015a6      0x243 build//Users/Danny/libmaple/libmaple/util.o
 .debug_abbrev  0x000017e9      0x3b5 build//Users/Danny/libmaple/libmaple/i2c.o
 .debug_abbrev  0x00001b9e      0x36a build//Users/Danny/libmaple/libmaple/usb/stm32f1/usb.o
 .debug_abbrev  0x00001f08      0x18c build//Users/Danny/libmaple/libmaple/usb/stm32f1/usb_reg_map.o
 .debug_abbrev  0x00002094      0x439 build//Users/Danny/libmaple/libmaple/usb/stm32f1/usb_cdcacm.o
 .debug_abbrev  0x000024cd      0x317 build//Users/Danny/libmaple/libmaple/usb/usb_lib/usb_core.o
 .debug_abbrev  0x000027e4      0x102 build//Users/Danny/libmaple/libmaple/usb/usb_lib/usb_init.o
 .debug_abbrev  0x000028e6       0xb3 build//Users/Danny/libmaple/libmaple/usb/usb_lib/usb_mem.o
 .debug_abbrev  0x00002999      0x1d4 build//Users/Danny/libmaple/libmaple/usb/usb_lib/usb_regs.o
 .debug_abbrev  0x00002b6d      0x1f3 build//Users/Danny/libmaple/libmaple/stm32f1/adc.o
 .debug_abbrev  0x00002d60      0x168 build//Users/Danny/libmaple/libmaple/stm32f1/bkp.o
 .debug_abbrev  0x00002ec8      0x3be build//Users/Danny/libmaple/libmaple/stm32f1/dma.o
 .debug_abbrev  0x00003286       0xa9 build//Users/Danny/libmaple/libmaple/stm32f1/exti.o
 .debug_abbrev  0x0000332f       0x14 build//Users/Danny/libmaple/libmaple/stm32f1/fsmc.o
 .debug_abbrev  0x00003343      0x15b build//Users/Danny/libmaple/libmaple/stm32f1/gpio.o
 .debug_abbrev  0x0000349e      0x19c build//Users/Danny/libmaple/libmaple/stm32f1/i2c.o
 .debug_abbrev  0x0000363a      0x21d build//Users/Danny/libmaple/libmaple/stm32f1/rcc.o
 .debug_abbrev  0x00003857      0x118 build//Users/Danny/libmaple/libmaple/stm32f1/spi.o
 .debug_abbrev  0x0000396f      0x1a9 build//Users/Danny/libmaple/libmaple/stm32f1/timer.o
 .debug_abbrev  0x00003b18      0x252 build//Users/Danny/libmaple/libmaple/stm32f1/usart.o
 .debug_abbrev  0x00003d6a       0xa0 build//Users/Danny/libmaple/wirish/start_c.o
 .debug_abbrev  0x00003e0a      0x18c build//Users/Danny/libmaple/wirish/syscalls.o
 .debug_abbrev  0x00003f96      0x223 build//Users/Danny/libmaple/wirish/stm32f1/util_hooks.o
 .debug_abbrev  0x000041b9      0x307 build//Users/Danny/libmaple/wirish/boards.o
 .debug_abbrev  0x000044c0       0x29 build//Users/Danny/libmaple/wirish/cxxabi-compat.o
 .debug_abbrev  0x000044e9      0x1a8 build//Users/Danny/libmaple/wirish/ext_interrupts.o
 .debug_abbrev  0x00004691      0x3fc build//Users/Danny/libmaple/wirish/HardwareSerial.o
 .debug_abbrev  0x00004a8d      0x38f build//Users/Danny/libmaple/wirish/HardwareTimer.o
 .debug_abbrev  0x00004e1c      0x1ff build//Users/Danny/libmaple/wirish/Print.o
 .debug_abbrev  0x0000501b      0x1bf build//Users/Danny/libmaple/wirish/pwm.o
 .debug_abbrev  0x000051da      0x3b7 build//Users/Danny/libmaple/wirish/usb_serial.o
 .debug_abbrev  0x00005591      0x3b5 build//Users/Danny/libmaple/wirish/HardwareSPI.o
 .debug_abbrev  0x00005946      0x142 build//Users/Danny/libmaple/wirish/wirish_analog.o
 .debug_abbrev  0x00005a88      0x21a build//Users/Danny/libmaple/wirish/wirish_digital.o
 .debug_abbrev  0x00005ca2       0x88 build//Users/Danny/libmaple/wirish/wirish_math.o
 .debug_abbrev  0x00005d2a       0xaf build//Users/Danny/libmaple/wirish/wirish_shift.o
 .debug_abbrev  0x00005dd9       0xe5 build//Users/Danny/libmaple/wirish/wirish_time.o
 .debug_abbrev  0x00005ebe      0x143 build//Users/Danny/libmaple/wirish/stm32f1/boards_setup.o
 .debug_abbrev  0x00006001      0x167 build//Users/Danny/libmaple/wirish/stm32f1/wirish_digital.o
 .debug_abbrev  0x00006168       0xda build//Users/Danny/libmaple/wirish/stm32f1/wirish_debug.o
 .debug_abbrev  0x00006242      0x160 build//Users/Danny/libmaple/wirish/boards/maple/board.o
 .debug_abbrev  0x000063a2      0x375 build//Users/Danny/libmaple/libraries/Servo/Servo.o
 .debug_abbrev  0x00006717      0x2b2 build//Users/Danny/libmaple/libraries/LiquidCrystal/LiquidCrystal.o
 .debug_abbrev  0x000069c9      0x265 build//Users/Danny/libmaple/libraries/Wire/WireBase.o
 .debug_abbrev  0x00006c2e      0x214 build//Users/Danny/libmaple/libraries/Wire/HardWire.o
 .debug_abbrev  0x00006e42      0x2a2 build//Users/Danny/libmaple/libraries/Wire/Wire.o
 .debug_abbrev  0x000070e4      0x1e0 build//Users/Danny/libmaple/libraries/FreeRTOS/utility/croutine.o
 .debug_abbrev  0x000072c4      0x197 build//Users/Danny/libmaple/libraries/FreeRTOS/utility/heap_2.o
 .debug_abbrev  0x0000745b       0xf0 build//Users/Danny/libmaple/libraries/FreeRTOS/utility/list.o
 .debug_abbrev  0x0000754b      0x110 build//Users/Danny/libmaple/libraries/FreeRTOS/utility/port.o
 .debug_abbrev  0x0000765b      0x1b6 build//Users/Danny/libmaple/libraries/FreeRTOS/utility/queue.o
 .debug_abbrev  0x00007811       0x33 build//Users/Danny/libmaple/libraries/FreeRTOS/utility/timers.o
 .debug_abbrev  0x00007844      0x253 build//Users/Danny/libmaple/libraries/FreeRTOS/utility/tasks.o
 .debug_abbrev  0x00007a97       0x8e build//Users/Danny/libmaple/libraries/FreeRTOS/MapleFreeRTOS.o
 .debug_abbrev  0x00007b25      0x316 build//Users/Danny/Maple_Workbench/SD/libSD/SD.o
 .debug_abbrev  0x00007e3b      0x2dc build//Users/Danny/Maple_Workbench/SD/libFAT/FAT.o
 .debug_abbrev  0x00008117      0x2e7 build//Users/Danny/Maple_Workbench/SD/main.o
 .debug_abbrev  0x000083fe       0x14 build/main.o
 .debug_abbrev  0x00008412       0x9c /Users/Danny/libmaple/arm/bin/../lib/gcc/arm-none-eabi/4.4.1/../../../../arm-none-eabi/lib/thumb2/libstdc++.a(atexit_arm.o)
 .debug_abbrev  0x000084ae       0x14 /Users/Danny/libmaple/arm/bin/../lib/gcc/arm-none-eabi/4.4.1/thumb2/libgcc.a(_arm_addsubdf3.o)
 .debug_abbrev  0x000084c2       0x14 /Users/Danny/libmaple/arm/bin/../lib/gcc/arm-none-eabi/4.4.1/thumb2/libgcc.a(_arm_muldivdf3.o)
 .debug_abbrev  0x000084d6       0x14 /Users/Danny/libmaple/arm/bin/../lib/gcc/arm-none-eabi/4.4.1/thumb2/libgcc.a(_arm_cmpdf2.o)
 .debug_abbrev  0x000084ea       0x14 /Users/Danny/libmaple/arm/bin/../lib/gcc/arm-none-eabi/4.4.1/thumb2/libgcc.a(_arm_fixdfsi.o)
 .debug_abbrev  0x000084fe       0x14 /Users/Danny/libmaple/arm/bin/../lib/gcc/arm-none-eabi/4.4.1/thumb2/libgcc.a(_aeabi_uldivmod.o)
 .debug_abbrev  0x00008512       0x66 /Users/Danny/libmaple/arm/bin/../lib/gcc/arm-none-eabi/4.4.1/thumb2/libgcc.a(_fixdfdi.o)
 .debug_abbrev  0x00008578       0x7c /Users/Danny/libmaple/arm/bin/../lib/gcc/arm-none-eabi/4.4.1/thumb2/libgcc.a(_fixunsdfdi.o)
 .debug_abbrev  0x000085f4       0x6c /Users/Danny/libmaple/arm/bin/../lib/gcc/arm-none-eabi/4.4.1/thumb2/libgcc.a(bpabi.o)
 .debug_abbrev  0x00008660       0x14 /Users/Danny/libmaple/arm/bin/../lib/gcc/arm-none-eabi/4.4.1/thumb2/libgcc.a(_dvmd_tls.o)
 .debug_abbrev  0x00008674       0x14 /Users/Danny/libmaple/arm/bin/../lib/gcc/arm-none-eabi/4.4.1/thumb2/libgcc.a(_arm_fixunsdfsi.o)
 .debug_abbrev  0x00008688      0x169 /Users/Danny/libmaple/arm/bin/../lib/gcc/arm-none-eabi/4.4.1/thumb2/libgcc.a(_divdi3.o)
 .debug_abbrev  0x000087f1      0x15a /Users/Danny/libmaple/arm/bin/../lib/gcc/arm-none-eabi/4.4.1/thumb2/libgcc.a(_udivdi3.o)
 .debug_abbrev  0x0000894b       0x14 /Users/Danny/libmaple/arm/bin/../lib/gcc/arm-none-eabi/4.4.1/thumb2/libgcc.a(_udivsi3.o)
 .debug_abbrev  0x0000895f       0x14 /Users/Danny/libmaple/arm/bin/../lib/gcc/arm-none-eabi/4.4.1/thumb2/libgcc.a(_divsi3.o)
 .debug_abbrev  0x00008973       0x12 /Users/Danny/libmaple/arm/bin/../lib/gcc/arm-none-eabi/4.4.1/thumb2/crtn.o

.debug_line     0x00000000     0xef13
 *(.debug_line)
 .debug_line    0x00000000       0x6f /Users/Danny/libmaple/arm/bin/../lib/gcc/arm-none-eabi/4.4.1/thumb2/crti.o
 .debug_line    0x0000006f      0x194 build//Users/Danny/libmaple/libmaple/adc.o
 .debug_line    0x00000203      0x19f build//Users/Danny/libmaple/libmaple/dac.o
 .debug_line    0x000003a2      0x170 build//Users/Danny/libmaple/libmaple/dma.o
 .debug_line    0x00000512      0x25f build//Users/Danny/libmaple/libmaple/exti.o
 .debug_line    0x00000771       0xeb build//Users/Danny/libmaple/libmaple/flash.o
 .debug_line    0x0000085c      0x124 build//Users/Danny/libmaple/libmaple/gpio.o
 .debug_line    0x00000980       0xbb build//Users/Danny/libmaple/libmaple/iwdg.o
 .debug_line    0x00000a3b      0x14d build//Users/Danny/libmaple/libmaple/nvic.o
 .debug_line    0x00000b88      0x131 build//Users/Danny/libmaple/libmaple/pwr.o
 .debug_line    0x00000cb9      0x18a build//Users/Danny/libmaple/libmaple/rcc.o
 .debug_line    0x00000e43      0x259 build//Users/Danny/libmaple/libmaple/spi.o
 .debug_line    0x0000109c       0xfd build//Users/Danny/libmaple/libmaple/systick.o
 .debug_line    0x00001199      0x2b8 build//Users/Danny/libmaple/libmaple/timer.o
 .debug_line    0x00001451      0x1fa build//Users/Danny/libmaple/libmaple/usart.o
 .debug_line    0x0000164b      0x15b build//Users/Danny/libmaple/libmaple/usart_private.o
 .debug_line    0x000017a6      0x22e build//Users/Danny/libmaple/libmaple/util.o
 .debug_line    0x000019d4      0x612 build//Users/Danny/libmaple/libmaple/i2c.o
 .debug_line    0x00001fe6      0x2cf build//Users/Danny/libmaple/libmaple/usb/stm32f1/usb.o
 .debug_line    0x000022b5      0x139 build//Users/Danny/libmaple/libmaple/usb/stm32f1/usb_reg_map.o
 .debug_line    0x000023ee      0x51a build//Users/Danny/libmaple/libmaple/usb/stm32f1/usb_cdcacm.o
 .debug_line    0x00002908      0x319 build//Users/Danny/libmaple/libmaple/usb/usb_lib/usb_core.o
 .debug_line    0x00002c21       0xce build//Users/Danny/libmaple/libmaple/usb/usb_lib/usb_init.o
 .debug_line    0x00002cef       0xe8 build//Users/Danny/libmaple/libmaple/usb/usb_lib/usb_mem.o
 .debug_line    0x00002dd7      0x4dc build//Users/Danny/libmaple/libmaple/usb/usb_lib/usb_regs.o
 .debug_line    0x000032b3      0x1e9 build//Users/Danny/libmaple/libmaple/stm32f1/adc.o
 .debug_line    0x0000349c      0x1c5 build//Users/Danny/libmaple/libmaple/stm32f1/bkp.o
 .debug_line    0x00003661      0x455 build//Users/Danny/libmaple/libmaple/stm32f1/dma.o
 .debug_line    0x00003ab6      0x15c build//Users/Danny/libmaple/libmaple/stm32f1/exti.o
 .debug_line    0x00003c12       0xca build//Users/Danny/libmaple/libmaple/stm32f1/fsmc.o
 .debug_line    0x00003cdc      0x17f build//Users/Danny/libmaple/libmaple/stm32f1/gpio.o
 .debug_line    0x00003e5b      0x267 build//Users/Danny/libmaple/libmaple/stm32f1/i2c.o
 .debug_line    0x000040c2      0x216 build//Users/Danny/libmaple/libmaple/stm32f1/rcc.o
 .debug_line    0x000042d8      0x1a8 build//Users/Danny/libmaple/libmaple/stm32f1/spi.o
 .debug_line    0x00004480      0x263 build//Users/Danny/libmaple/libmaple/stm32f1/timer.o
 .debug_line    0x000046e3      0x264 build//Users/Danny/libmaple/libmaple/stm32f1/usart.o
 .debug_line    0x00004947       0xb5 build//Users/Danny/libmaple/wirish/start_c.o
 .debug_line    0x000049fc      0x43e build//Users/Danny/libmaple/wirish/syscalls.o
 .debug_line    0x00004e3a      0x236 build//Users/Danny/libmaple/wirish/stm32f1/util_hooks.o
 .debug_line    0x00005070      0x362 build//Users/Danny/libmaple/wirish/boards.o
 .debug_line    0x000053d2       0x5c build//Users/Danny/libmaple/wirish/cxxabi-compat.o
 .debug_line    0x0000542e      0x259 build//Users/Danny/libmaple/wirish/ext_interrupts.o
 .debug_line    0x00005687      0x376 build//Users/Danny/libmaple/wirish/HardwareSerial.o
 .debug_line    0x000059fd      0x632 build//Users/Danny/libmaple/wirish/HardwareTimer.o
 .debug_line    0x0000602f      0x551 build//Users/Danny/libmaple/wirish/Print.o
 .debug_line    0x00006580      0x22e build//Users/Danny/libmaple/wirish/pwm.o
 .debug_line    0x000067ae      0x6dd build//Users/Danny/libmaple/wirish/usb_serial.o
 .debug_line    0x00006e8b      0x746 build//Users/Danny/libmaple/wirish/HardwareSPI.o
 .debug_line    0x000075d1      0x22f build//Users/Danny/libmaple/wirish/wirish_analog.o
 .debug_line    0x00007800      0x2ba build//Users/Danny/libmaple/wirish/wirish_digital.o
 .debug_line    0x00007aba      0x2db build//Users/Danny/libmaple/wirish/wirish_math.o
 .debug_line    0x00007d95      0x509 build//Users/Danny/libmaple/wirish/wirish_shift.o
 .debug_line    0x0000829e      0x25c build//Users/Danny/libmaple/wirish/wirish_time.o
 .debug_line    0x000084fa      0x2c3 build//Users/Danny/libmaple/wirish/stm32f1/boards_setup.o
 .debug_line    0x000087bd      0x24a build//Users/Danny/libmaple/wirish/stm32f1/wirish_digital.o
 .debug_line    0x00008a07      0x196 build//Users/Danny/libmaple/wirish/stm32f1/wirish_debug.o
 .debug_line    0x00008b9d      0x25b build//Users/Danny/libmaple/wirish/boards/maple/board.o
 .debug_line    0x00008df8      0x56c build//Users/Danny/libmaple/libraries/Servo/Servo.o
 .debug_line    0x00009364      0x889 build//Users/Danny/libmaple/libraries/LiquidCrystal/LiquidCrystal.o
 .debug_line    0x00009bed      0x63e build//Users/Danny/libmaple/libraries/Wire/WireBase.o
 .debug_line    0x0000a22b      0x5db build//Users/Danny/libmaple/libraries/Wire/HardWire.o
 .debug_line    0x0000a806      0x6bc build//Users/Danny/libmaple/libraries/Wire/Wire.o
 .debug_line    0x0000aec2      0x1ef build//Users/Danny/libmaple/libraries/FreeRTOS/utility/croutine.o
 .debug_line    0x0000b0b1      0x346 build//Users/Danny/libmaple/libraries/FreeRTOS/utility/heap_2.o
 .debug_line    0x0000b3f7      0x352 build//Users/Danny/libmaple/libraries/FreeRTOS/utility/list.o
 .debug_line    0x0000b749      0x1ef build//Users/Danny/libmaple/libraries/FreeRTOS/utility/port.o
 .debug_line    0x0000b938      0x54a build//Users/Danny/libmaple/libraries/FreeRTOS/utility/queue.o
 .debug_line    0x0000be82      0x135 build//Users/Danny/libmaple/libraries/FreeRTOS/utility/timers.o
 .debug_line    0x0000bfb7      0x78a build//Users/Danny/libmaple/libraries/FreeRTOS/utility/tasks.o
 .debug_line    0x0000c741      0x5d9 build//Users/Danny/libmaple/libraries/FreeRTOS/MapleFreeRTOS.o
 .debug_line    0x0000cd1a      0x6d6 build//Users/Danny/Maple_Workbench/SD/libSD/SD.o
 .debug_line    0x0000d3f0      0x725 build//Users/Danny/Maple_Workbench/SD/libFAT/FAT.o
 .debug_line    0x0000db15      0x6ab build//Users/Danny/Maple_Workbench/SD/main.o
 .debug_line    0x0000e1c0       0x3f build/main.o
 .debug_line    0x0000e1ff       0xe5 /Users/Danny/libmaple/arm/bin/../lib/gcc/arm-none-eabi/4.4.1/../../../../arm-none-eabi/lib/thumb2/libstdc++.a(atexit_arm.o)
 .debug_line    0x0000e2e4      0x20e /Users/Danny/libmaple/arm/bin/../lib/gcc/arm-none-eabi/4.4.1/thumb2/libgcc.a(_arm_addsubdf3.o)
 .debug_line    0x0000e4f2      0x22e /Users/Danny/libmaple/arm/bin/../lib/gcc/arm-none-eabi/4.4.1/thumb2/libgcc.a(_arm_muldivdf3.o)
 .debug_line    0x0000e720      0x114 /Users/Danny/libmaple/arm/bin/../lib/gcc/arm-none-eabi/4.4.1/thumb2/libgcc.a(_arm_cmpdf2.o)
 .debug_line    0x0000e834       0x8c /Users/Danny/libmaple/arm/bin/../lib/gcc/arm-none-eabi/4.4.1/thumb2/libgcc.a(_arm_fixdfsi.o)
 .debug_line    0x0000e8c0       0x77 /Users/Danny/libmaple/arm/bin/../lib/gcc/arm-none-eabi/4.4.1/thumb2/libgcc.a(_aeabi_uldivmod.o)
 .debug_line    0x0000e937       0x7b /Users/Danny/libmaple/arm/bin/../lib/gcc/arm-none-eabi/4.4.1/thumb2/libgcc.a(_fixdfdi.o)
 .debug_line    0x0000e9b2       0x82 /Users/Danny/libmaple/arm/bin/../lib/gcc/arm-none-eabi/4.4.1/thumb2/libgcc.a(_fixunsdfdi.o)
 .debug_line    0x0000ea34       0x79 /Users/Danny/libmaple/arm/bin/../lib/gcc/arm-none-eabi/4.4.1/thumb2/libgcc.a(bpabi.o)
 .debug_line    0x0000eaad       0x75 /Users/Danny/libmaple/arm/bin/../lib/gcc/arm-none-eabi/4.4.1/thumb2/libgcc.a(_dvmd_tls.o)
 .debug_line    0x0000eb22       0x88 /Users/Danny/libmaple/arm/bin/../lib/gcc/arm-none-eabi/4.4.1/thumb2/libgcc.a(_arm_fixunsdfsi.o)
 .debug_line    0x0000ebaa       0xe1 /Users/Danny/libmaple/arm/bin/../lib/gcc/arm-none-eabi/4.4.1/thumb2/libgcc.a(_divdi3.o)
 .debug_line    0x0000ec8b       0xd5 /Users/Danny/libmaple/arm/bin/../lib/gcc/arm-none-eabi/4.4.1/thumb2/libgcc.a(_udivdi3.o)
 .debug_line    0x0000ed60       0x98 /Users/Danny/libmaple/arm/bin/../lib/gcc/arm-none-eabi/4.4.1/thumb2/libgcc.a(_udivsi3.o)
 .debug_line    0x0000edf8       0xa9 /Users/Danny/libmaple/arm/bin/../lib/gcc/arm-none-eabi/4.4.1/thumb2/libgcc.a(_divsi3.o)
 .debug_line    0x0000eea1       0x72 /Users/Danny/libmaple/arm/bin/../lib/gcc/arm-none-eabi/4.4.1/thumb2/crtn.o

.debug_frame    0x00000000     0x4340
 *(.debug_frame)
 .debug_frame   0x00000000       0x68 build//Users/Danny/libmaple/libmaple/adc.o
 .debug_frame   0x00000068       0x6c build//Users/Danny/libmaple/libmaple/dac.o
 .debug_frame   0x000000d4       0x30 build//Users/Danny/libmaple/libmaple/dma.o
 .debug_frame   0x00000104      0x15c build//Users/Danny/libmaple/libmaple/exti.o
 .debug_frame   0x00000260       0x20 build//Users/Danny/libmaple/libmaple/flash.o
 .debug_frame   0x00000280       0x2c build//Users/Danny/libmaple/libmaple/gpio.o
 .debug_frame   0x000002ac       0x30 build//Users/Danny/libmaple/libmaple/iwdg.o
 .debug_frame   0x000002dc       0x5c build//Users/Danny/libmaple/libmaple/nvic.o
 .debug_frame   0x00000338       0x2c build//Users/Danny/libmaple/libmaple/pwr.o
 .debug_frame   0x00000364       0xd0 build//Users/Danny/libmaple/libmaple/rcc.o
 .debug_frame   0x00000434       0xf8 build//Users/Danny/libmaple/libmaple/spi.o
 .debug_frame   0x0000052c       0x6c build//Users/Danny/libmaple/libmaple/systick.o
 .debug_frame   0x00000598      0x14c build//Users/Danny/libmaple/libmaple/timer.o
 .debug_frame   0x000006e4       0xb4 build//Users/Danny/libmaple/libmaple/usart.o
 .debug_frame   0x00000798       0x2c build//Users/Danny/libmaple/libmaple/usart_private.o
 .debug_frame   0x000007c4       0xec build//Users/Danny/libmaple/libmaple/util.o
 .debug_frame   0x000008b0      0x1a4 build//Users/Danny/libmaple/libmaple/i2c.o
 .debug_frame   0x00000a54       0xbc build//Users/Danny/libmaple/libmaple/usb/stm32f1/usb.o
 .debug_frame   0x00000b10       0x84 build//Users/Danny/libmaple/libmaple/usb/stm32f1/usb_reg_map.o
 .debug_frame   0x00000b94      0x2ac build//Users/Danny/libmaple/libmaple/usb/stm32f1/usb_cdcacm.o
 .debug_frame   0x00000e40      0x1dc build//Users/Danny/libmaple/libmaple/usb/usb_lib/usb_core.o
 .debug_frame   0x0000101c       0x2c build//Users/Danny/libmaple/libmaple/usb/usb_lib/usb_init.o
 .debug_frame   0x00001048       0x3c build//Users/Danny/libmaple/libmaple/usb/usb_lib/usb_mem.o
 .debug_frame   0x00001084      0x3dc build//Users/Danny/libmaple/libmaple/usb/usb_lib/usb_regs.o
 .debug_frame   0x00001460       0x9c build//Users/Danny/libmaple/libmaple/stm32f1/adc.o
 .debug_frame   0x000014fc       0xbc build//Users/Danny/libmaple/libmaple/stm32f1/bkp.o
 .debug_frame   0x000015b8      0x2d0 build//Users/Danny/libmaple/libmaple/stm32f1/dma.o
 .debug_frame   0x00001888       0x20 build//Users/Danny/libmaple/libmaple/stm32f1/exti.o
 .debug_frame   0x000018a8       0x78 build//Users/Danny/libmaple/libmaple/stm32f1/gpio.o
 .debug_frame   0x00001920       0xd4 build//Users/Danny/libmaple/libmaple/stm32f1/i2c.o
 .debug_frame   0x000019f4       0xb8 build//Users/Danny/libmaple/libmaple/stm32f1/rcc.o
 .debug_frame   0x00001aac       0x54 build//Users/Danny/libmaple/libmaple/stm32f1/spi.o
 .debug_frame   0x00001b00      0x110 build//Users/Danny/libmaple/libmaple/stm32f1/timer.o
 .debug_frame   0x00001c10       0xac build//Users/Danny/libmaple/libmaple/stm32f1/usart.o
 .debug_frame   0x00001cbc       0x2c build//Users/Danny/libmaple/wirish/start_c.o
 .debug_frame   0x00001ce8      0x138 build//Users/Danny/libmaple/wirish/syscalls.o
 .debug_frame   0x00001e20       0x68 build//Users/Danny/libmaple/wirish/stm32f1/util_hooks.o
 .debug_frame   0x00001e88       0xa4 build//Users/Danny/libmaple/wirish/boards.o
 .debug_frame   0x00001f2c       0x20 build//Users/Danny/libmaple/wirish/cxxabi-compat.o
 .debug_frame   0x00001f4c       0x40 build//Users/Danny/libmaple/wirish/ext_interrupts.o
 .debug_frame   0x00001f8c      0x124 build//Users/Danny/libmaple/wirish/HardwareSerial.o
 .debug_frame   0x000020b0      0x1d0 build//Users/Danny/libmaple/wirish/HardwareTimer.o
 .debug_frame   0x00002280      0x330 build//Users/Danny/libmaple/wirish/Print.o
 .debug_frame   0x000025b0       0x30 build//Users/Danny/libmaple/wirish/pwm.o
 .debug_frame   0x000025e0      0x1fc build//Users/Danny/libmaple/wirish/usb_serial.o
 .debug_frame   0x000027dc      0x2a0 build//Users/Danny/libmaple/wirish/HardwareSPI.o
 .debug_frame   0x00002a7c       0x20 build//Users/Danny/libmaple/wirish/wirish_analog.o
 .debug_frame   0x00002a9c       0x80 build//Users/Danny/libmaple/wirish/wirish_digital.o
 .debug_frame   0x00002b1c       0x58 build//Users/Danny/libmaple/wirish/wirish_math.o
 .debug_frame   0x00002b74       0x38 build//Users/Danny/libmaple/wirish/wirish_shift.o
 .debug_frame   0x00002bac       0x40 build//Users/Danny/libmaple/wirish/wirish_time.o
 .debug_frame   0x00002bec       0x6c build//Users/Danny/libmaple/wirish/stm32f1/boards_setup.o
 .debug_frame   0x00002c58       0x30 build//Users/Danny/libmaple/wirish/stm32f1/wirish_digital.o
 .debug_frame   0x00002c88       0x40 build//Users/Danny/libmaple/wirish/stm32f1/wirish_debug.o
 .debug_frame   0x00002cc8       0x30 build//Users/Danny/libmaple/wirish/boards/maple/board.o
 .debug_frame   0x00002cf8      0x16c build//Users/Danny/libmaple/libraries/Servo/Servo.o
 .debug_frame   0x00002e64      0x3e0 build//Users/Danny/libmaple/libraries/LiquidCrystal/LiquidCrystal.o
 .debug_frame   0x00003244      0x124 build//Users/Danny/libmaple/libraries/Wire/WireBase.o
 .debug_frame   0x00003368       0xd4 build//Users/Danny/libmaple/libraries/Wire/HardWire.o
 .debug_frame   0x0000343c      0x1f4 build//Users/Danny/libmaple/libraries/Wire/Wire.o
 .debug_frame   0x00003630       0xa4 build//Users/Danny/libmaple/libraries/FreeRTOS/utility/croutine.o
 .debug_frame   0x000036d4       0x70 build//Users/Danny/libmaple/libraries/FreeRTOS/utility/heap_2.o
 .debug_frame   0x00003744       0x6c build//Users/Danny/libmaple/libraries/FreeRTOS/utility/list.o
 .debug_frame   0x000037b0       0xd4 build//Users/Danny/libmaple/libraries/FreeRTOS/utility/port.o
 .debug_frame   0x00003884      0x210 build//Users/Danny/libmaple/libraries/FreeRTOS/utility/queue.o
 .debug_frame   0x00003a94      0x3d4 build//Users/Danny/libmaple/libraries/FreeRTOS/utility/tasks.o
 .debug_frame   0x00003e68       0x20 build//Users/Danny/libmaple/libraries/FreeRTOS/MapleFreeRTOS.o
 .debug_frame   0x00003e88      0x138 build//Users/Danny/Maple_Workbench/SD/libSD/SD.o
 .debug_frame   0x00003fc0      0x134 build//Users/Danny/Maple_Workbench/SD/libFAT/FAT.o
 .debug_frame   0x000040f4       0x9c build//Users/Danny/Maple_Workbench/SD/main.o
 .debug_frame   0x00004190       0x20 /Users/Danny/libmaple/arm/bin/../lib/gcc/arm-none-eabi/4.4.1/../../../../arm-none-eabi/lib/thumb2/libstdc++.a(atexit_arm.o)
 .debug_frame   0x000041b0       0x38 /Users/Danny/libmaple/arm/bin/../lib/gcc/arm-none-eabi/4.4.1/thumb2/libgcc.a(_fixdfdi.o)
 .debug_frame   0x000041e8       0x30 /Users/Danny/libmaple/arm/bin/../lib/gcc/arm-none-eabi/4.4.1/thumb2/libgcc.a(_fixunsdfdi.o)
 .debug_frame   0x00004218       0x60 /Users/Danny/libmaple/arm/bin/../lib/gcc/arm-none-eabi/4.4.1/thumb2/libgcc.a(bpabi.o)
 .debug_frame   0x00004278       0x44 /Users/Danny/libmaple/arm/bin/../lib/gcc/arm-none-eabi/4.4.1/thumb2/libgcc.a(_divdi3.o)
 .debug_frame   0x000042bc       0x44 /Users/Danny/libmaple/arm/bin/../lib/gcc/arm-none-eabi/4.4.1/thumb2/libgcc.a(_udivdi3.o)
 .debug_frame   0x00004300       0x20 /Users/Danny/libmaple/arm/bin/../lib/gcc/arm-none-eabi/4.4.1/thumb2/libgcc.a(_udivsi3.o)
 .debug_frame   0x00004320       0x20 /Users/Danny/libmaple/arm/bin/../lib/gcc/arm-none-eabi/4.4.1/thumb2/libgcc.a(_divsi3.o)

.debug_str      0x00000000     0x9281
 *(.debug_str)
 .debug_str     0x00000000      0x4f9 build//Users/Danny/libmaple/libmaple/adc.o
                                0x535 (size before relaxing)
 .debug_str     0x000004f9      0x1d5 build//Users/Danny/libmaple/libmaple/dac.o
                                0x45d (size before relaxing)
 .debug_str     0x000006ce      0x693 build//Users/Danny/libmaple/libmaple/dma.o
                                0x8fd (size before relaxing)
 .debug_str     0x00000d61      0x258 build//Users/Danny/libmaple/libmaple/exti.o
                                0x7e2 (size before relaxing)
 .debug_str     0x00000fb9       0x60 build//Users/Danny/libmaple/libmaple/flash.o
                                 0xe1 (size before relaxing)
 .debug_str     0x00001019       0x30 build//Users/Danny/libmaple/libmaple/gpio.o
                                0x308 (size before relaxing)
 .debug_str     0x00001049       0xaa build//Users/Danny/libmaple/libmaple/iwdg.o
                                0x13e (size before relaxing)
 .debug_str     0x000010f3       0xbb build//Users/Danny/libmaple/libmaple/nvic.o
                                0x5e1 (size before relaxing)
 .debug_str     0x000011ae       0x2e build//Users/Danny/libmaple/libmaple/pwr.o
                                0x278 (size before relaxing)
 .debug_str     0x000011dc      0x1c4 build//Users/Danny/libmaple/libmaple/rcc.o
                                0x436 (size before relaxing)
 .debug_str     0x000013a0      0x366 build//Users/Danny/libmaple/libmaple/spi.o
                                0xa52 (size before relaxing)
 .debug_str     0x00001706       0xc2 build//Users/Danny/libmaple/libmaple/systick.o
                                0x147 (size before relaxing)
 .debug_str     0x000017c8      0x3f9 build//Users/Danny/libmaple/libmaple/timer.o
                                0xbc5 (size before relaxing)
 .debug_str     0x00001bc1      0x124 build//Users/Danny/libmaple/libmaple/usart.o
                                0x847 (size before relaxing)
 .debug_str     0x00001ce5       0x41 build//Users/Danny/libmaple/libmaple/usart_private.o
                                0x750 (size before relaxing)
 .debug_str     0x00001d26       0xaf build//Users/Danny/libmaple/libmaple/util.o
                                0x8c1 (size before relaxing)
 .debug_str     0x00001dd5      0x4c6 build//Users/Danny/libmaple/libmaple/i2c.o
                                0xcd1 (size before relaxing)
 .debug_str     0x0000229b      0x5a1 build//Users/Danny/libmaple/libmaple/usb/stm32f1/usb.o
                                0x907 (size before relaxing)
 .debug_str     0x0000283c       0xb1 build//Users/Danny/libmaple/libmaple/usb/stm32f1/usb_reg_map.o
                                0x173 (size before relaxing)
 .debug_str     0x000028ed      0x7e5 build//Users/Danny/libmaple/libmaple/usb/stm32f1/usb_cdcacm.o
                               0x1564 (size before relaxing)
 .debug_str     0x000030d2      0x413 build//Users/Danny/libmaple/libmaple/usb/usb_lib/usb_core.o
                                0x94a (size before relaxing)
 .debug_str     0x000034e5       0x61 build//Users/Danny/libmaple/libmaple/usb/usb_lib/usb_init.o
                                0x435 (size before relaxing)
 .debug_str     0x00003546       0x8d build//Users/Danny/libmaple/libmaple/usb/usb_lib/usb_mem.o
                                 0xeb (size before relaxing)
 .debug_str     0x000035d3      0x3f9 build//Users/Danny/libmaple/libmaple/usb/usb_lib/usb_regs.o
                                0x473 (size before relaxing)
 .debug_str     0x000039cc      0x188 build//Users/Danny/libmaple/libmaple/stm32f1/adc.o
                                0x6e3 (size before relaxing)
 .debug_str     0x00003b54       0xa7 build//Users/Danny/libmaple/libmaple/stm32f1/bkp.o
                                0x33e (size before relaxing)
 .debug_str     0x00003bfb      0x953 build//Users/Danny/libmaple/libmaple/stm32f1/dma.o
                               0x125c (size before relaxing)
 .debug_str     0x0000454e       0x77 build//Users/Danny/libmaple/libmaple/stm32f1/exti.o
                                0x1b8 (size before relaxing)
 .debug_str     0x000045c5       0x2e build//Users/Danny/libmaple/libmaple/stm32f1/fsmc.o
                                 0x3a (size before relaxing)
 .debug_str     0x000045f3       0x81 build//Users/Danny/libmaple/libmaple/stm32f1/gpio.o
                                0x641 (size before relaxing)
 .debug_str     0x00004674       0xc0 build//Users/Danny/libmaple/libmaple/stm32f1/i2c.o
                                0xb81 (size before relaxing)
 .debug_str     0x00004734      0x222 build//Users/Danny/libmaple/libmaple/stm32f1/rcc.o
                                0x66a (size before relaxing)
 .debug_str     0x00004956       0x91 build//Users/Danny/libmaple/libmaple/stm32f1/spi.o
                                0x876 (size before relaxing)
 .debug_str     0x000049e7      0x10b build//Users/Danny/libmaple/libmaple/stm32f1/timer.o
                                0x54a (size before relaxing)
 .debug_str     0x00004af2      0x121 build//Users/Danny/libmaple/libmaple/stm32f1/usart.o
                                0x94c (size before relaxing)
 .debug_str     0x00004c13       0x72 build//Users/Danny/libmaple/wirish/start_c.o
                                 0x9e (size before relaxing)
 .debug_str     0x00004c85      0x17c build//Users/Danny/libmaple/wirish/syscalls.o
                                0x250 (size before relaxing)
 .debug_str     0x00004e01       0xaa build//Users/Danny/libmaple/wirish/stm32f1/util_hooks.o
                                0x9a4 (size before relaxing)
 .debug_str     0x00004eab      0x264 build//Users/Danny/libmaple/wirish/boards.o
                                0x9a2 (size before relaxing)
 .debug_str     0x0000510f       0x42 build//Users/Danny/libmaple/wirish/cxxabi-compat.o
                                 0x50 (size before relaxing)
 .debug_str     0x00005151      0x114 build//Users/Danny/libmaple/wirish/ext_interrupts.o
                                0x635 (size before relaxing)
 .debug_str     0x00005265      0x20b build//Users/Danny/libmaple/wirish/HardwareSerial.o
                                0xc04 (size before relaxing)
 .debug_str     0x00005470      0x931 build//Users/Danny/libmaple/wirish/HardwareTimer.o
                                0xe3c (size before relaxing)
 .debug_str     0x00005da1      0x290 build//Users/Danny/libmaple/wirish/Print.o
                                0x3a2 (size before relaxing)
 .debug_str     0x00006031       0x47 build//Users/Danny/libmaple/wirish/pwm.o
                                0x514 (size before relaxing)
 .debug_str     0x00006078      0x25f build//Users/Danny/libmaple/wirish/usb_serial.o
                                0x707 (size before relaxing)
 .debug_str     0x000062d7      0x3ac build//Users/Danny/libmaple/wirish/HardwareSPI.o
                                0xfc2 (size before relaxing)
 .debug_str     0x00006683       0x4a build//Users/Danny/libmaple/wirish/wirish_analog.o
                                0x4ec (size before relaxing)
 .debug_str     0x000066cd       0xf3 build//Users/Danny/libmaple/wirish/wirish_digital.o
                                0x5ea (size before relaxing)
 .debug_str     0x000067c0       0x80 build//Users/Danny/libmaple/wirish/wirish_math.o
                                0x130 (size before relaxing)
 .debug_str     0x00006840       0x58 build//Users/Danny/libmaple/wirish/wirish_shift.o
                                0x13a (size before relaxing)
 .debug_str     0x00006898       0x60 build//Users/Danny/libmaple/wirish/wirish_time.o
                                0x115 (size before relaxing)
 .debug_str     0x000068f8      0x320 build//Users/Danny/libmaple/wirish/stm32f1/boards_setup.o
                                0x6c1 (size before relaxing)
 .debug_str     0x00006c18       0xb0 build//Users/Danny/libmaple/wirish/stm32f1/wirish_digital.o
                                0x64a (size before relaxing)
 .debug_str     0x00006cc8      0x103 build//Users/Danny/libmaple/wirish/stm32f1/wirish_debug.o
                                0x1c5 (size before relaxing)
 .debug_str     0x00006dcb       0x61 build//Users/Danny/libmaple/wirish/boards/maple/board.o
                                0x587 (size before relaxing)
 .debug_str     0x00006e2c      0x1b9 build//Users/Danny/libmaple/libraries/Servo/Servo.o
                                0x80b (size before relaxing)
 .debug_str     0x00006fe5      0x4c1 build//Users/Danny/libmaple/libraries/LiquidCrystal/LiquidCrystal.o
                                0x656 (size before relaxing)
 .debug_str     0x000074a6      0x264 build//Users/Danny/libmaple/libraries/Wire/WireBase.o
                                0xb22 (size before relaxing)
 .debug_str     0x0000770a       0x84 build//Users/Danny/libmaple/libraries/Wire/HardWire.o
                                0x92d (size before relaxing)
 .debug_str     0x0000778e      0x1c1 build//Users/Danny/libmaple/libraries/Wire/Wire.o
                                0xaf8 (size before relaxing)
 .debug_str     0x0000794f      0x36c build//Users/Danny/libmaple/libraries/FreeRTOS/utility/croutine.o
                                0x3cd (size before relaxing)
 .debug_str     0x00007cbb      0x175 build//Users/Danny/libmaple/libraries/FreeRTOS/utility/heap_2.o
                                0x218 (size before relaxing)
 .debug_str     0x00007e30       0xc0 build//Users/Danny/libmaple/libraries/FreeRTOS/utility/list.o
                                0x1fe (size before relaxing)
 .debug_str     0x00007ef0      0x142 build//Users/Danny/libmaple/libraries/FreeRTOS/utility/port.o
                                0x195 (size before relaxing)
 .debug_str     0x00008032      0x3b8 build//Users/Danny/libmaple/libraries/FreeRTOS/utility/queue.o
                                0x510 (size before relaxing)
 .debug_str     0x000083ea       0x3a build//Users/Danny/libmaple/libraries/FreeRTOS/utility/timers.o
                                 0x8d (size before relaxing)
 .debug_str     0x00008424      0x774 build//Users/Danny/libmaple/libraries/FreeRTOS/utility/tasks.o
                                0x9a9 (size before relaxing)
 .debug_str     0x00008b98       0x59 build//Users/Danny/libmaple/libraries/FreeRTOS/MapleFreeRTOS.o
                                0x144 (size before relaxing)
 .debug_str     0x00008bf1      0x1b6 build//Users/Danny/Maple_Workbench/SD/libSD/SD.o
                                0xd8d (size before relaxing)
 .debug_str     0x00008da7      0x19f build//Users/Danny/Maple_Workbench/SD/libFAT/FAT.o
                                0xe15 (size before relaxing)
 .debug_str     0x00008f46       0x7c build//Users/Danny/Maple_Workbench/SD/main.o
                                0xe4a (size before relaxing)
 .debug_str     0x00008fc2       0x1f build/main.o
                                 0x2d (size before relaxing)
 .debug_str     0x00008fe1       0xde /Users/Danny/libmaple/arm/bin/../lib/gcc/arm-none-eabi/4.4.1/../../../../arm-none-eabi/lib/thumb2/libstdc++.a(atexit_arm.o)
                                0x112 (size before relaxing)
 .debug_str     0x000090bf       0xb6 /Users/Danny/libmaple/arm/bin/../lib/gcc/arm-none-eabi/4.4.1/thumb2/libgcc.a(_fixdfdi.o)
                                0x156 (size before relaxing)
 .debug_str     0x00009175       0x1d /Users/Danny/libmaple/arm/bin/../lib/gcc/arm-none-eabi/4.4.1/thumb2/libgcc.a(_fixunsdfdi.o)
                                0x162 (size before relaxing)
 .debug_str     0x00009192       0x73 /Users/Danny/libmaple/arm/bin/../lib/gcc/arm-none-eabi/4.4.1/thumb2/libgcc.a(bpabi.o)
                                0x100 (size before relaxing)
 .debug_str     0x00009205       0x72 /Users/Danny/libmaple/arm/bin/../lib/gcc/arm-none-eabi/4.4.1/thumb2/libgcc.a(_divdi3.o)
                                0x1ce (size before relaxing)
 .debug_str     0x00009277        0xa /Users/Danny/libmaple/arm/bin/../lib/gcc/arm-none-eabi/4.4.1/thumb2/libgcc.a(_udivdi3.o)
                                0x1cf (size before relaxing)

.debug_loc      0x00000000     0xb763
 *(.debug_loc)
 .debug_loc     0x00000000       0x82 build//Users/Danny/libmaple/libmaple/adc.o
 .debug_loc     0x00000082       0xea build//Users/Danny/libmaple/libmaple/dac.o
 .debug_loc     0x0000016c       0x26 build//Users/Danny/libmaple/libmaple/dma.o
 .debug_loc     0x00000192      0x32c build//Users/Danny/libmaple/libmaple/exti.o
 .debug_loc     0x000004be       0x3d build//Users/Danny/libmaple/libmaple/gpio.o
 .debug_loc     0x000004fb       0x26 build//Users/Danny/libmaple/libmaple/iwdg.o
 .debug_loc     0x00000521       0x89 build//Users/Danny/libmaple/libmaple/nvic.o
 .debug_loc     0x000005aa       0x1f build//Users/Danny/libmaple/libmaple/pwr.o
 .debug_loc     0x000005c9      0x140 build//Users/Danny/libmaple/libmaple/rcc.o
 .debug_loc     0x00000709      0x1d4 build//Users/Danny/libmaple/libmaple/spi.o
 .debug_loc     0x000008dd       0x32 build//Users/Danny/libmaple/libmaple/systick.o
 .debug_loc     0x0000090f      0x47b build//Users/Danny/libmaple/libmaple/timer.o
 .debug_loc     0x00000d8a      0x192 build//Users/Danny/libmaple/libmaple/usart.o
 .debug_loc     0x00000f1c       0x32 build//Users/Danny/libmaple/libmaple/usart_private.o
 .debug_loc     0x00000f4e      0x202 build//Users/Danny/libmaple/libmaple/util.o
 .debug_loc     0x00001150      0x416 build//Users/Danny/libmaple/libmaple/i2c.o
 .debug_loc     0x00001566      0x17e build//Users/Danny/libmaple/libmaple/usb/stm32f1/usb.o
 .debug_loc     0x000016e4      0x168 build//Users/Danny/libmaple/libmaple/usb/stm32f1/usb_reg_map.o
 .debug_loc     0x0000184c      0x4d8 build//Users/Danny/libmaple/libmaple/usb/stm32f1/usb_cdcacm.o
 .debug_loc     0x00001d24      0x677 build//Users/Danny/libmaple/libmaple/usb/usb_lib/usb_core.o
 .debug_loc     0x0000239b       0x1f build//Users/Danny/libmaple/libmaple/usb/usb_lib/usb_init.o
 .debug_loc     0x000023ba       0x6b build//Users/Danny/libmaple/libmaple/usb/usb_lib/usb_mem.o
 .debug_loc     0x00002425      0x5fc build//Users/Danny/libmaple/libmaple/usb/usb_lib/usb_regs.o
 .debug_loc     0x00002a21      0x116 build//Users/Danny/libmaple/libmaple/stm32f1/adc.o
 .debug_loc     0x00002b37       0xfd build//Users/Danny/libmaple/libmaple/stm32f1/bkp.o
 .debug_loc     0x00002c34      0x8a6 build//Users/Danny/libmaple/libmaple/stm32f1/dma.o
 .debug_loc     0x000034da       0x3c build//Users/Danny/libmaple/libmaple/stm32f1/exti.o
 .debug_loc     0x00003516      0x109 build//Users/Danny/libmaple/libmaple/stm32f1/gpio.o
 .debug_loc     0x0000361f       0xdd build//Users/Danny/libmaple/libmaple/stm32f1/i2c.o
 .debug_loc     0x000036fc      0x19e build//Users/Danny/libmaple/libmaple/stm32f1/rcc.o
 .debug_loc     0x0000389a      0x150 build//Users/Danny/libmaple/libmaple/stm32f1/spi.o
 .debug_loc     0x000039ea      0x6b7 build//Users/Danny/libmaple/libmaple/stm32f1/timer.o
 .debug_loc     0x000040a1      0x1cb build//Users/Danny/libmaple/libmaple/stm32f1/usart.o
 .debug_loc     0x0000426c       0x63 build//Users/Danny/libmaple/wirish/start_c.o
 .debug_loc     0x000042cf      0x2a4 build//Users/Danny/libmaple/wirish/syscalls.o
 .debug_loc     0x00004573       0x5c build//Users/Danny/libmaple/wirish/stm32f1/util_hooks.o
 .debug_loc     0x000045cf      0x14d build//Users/Danny/libmaple/wirish/boards.o
 .debug_loc     0x0000471c      0x123 build//Users/Danny/libmaple/wirish/ext_interrupts.o
 .debug_loc     0x0000483f      0x2d6 build//Users/Danny/libmaple/wirish/HardwareSerial.o
 .debug_loc     0x00004b15      0x358 build//Users/Danny/libmaple/wirish/HardwareTimer.o
 .debug_loc     0x00004e6d      0xacf build//Users/Danny/libmaple/wirish/Print.o
 .debug_loc     0x0000593c       0x6e build//Users/Danny/libmaple/wirish/pwm.o
 .debug_loc     0x000059aa      0x46d build//Users/Danny/libmaple/wirish/usb_serial.o
 .debug_loc     0x00005e17      0x761 build//Users/Danny/libmaple/wirish/HardwareSPI.o
 .debug_loc     0x00006578       0x26 build//Users/Danny/libmaple/wirish/wirish_analog.o
 .debug_loc     0x0000659e      0x144 build//Users/Danny/libmaple/wirish/wirish_digital.o
 .debug_loc     0x000066e2       0xb6 build//Users/Danny/libmaple/wirish/wirish_math.o
 .debug_loc     0x00006798       0xb5 build//Users/Danny/libmaple/wirish/wirish_shift.o
 .debug_loc     0x0000684d       0x63 build//Users/Danny/libmaple/wirish/wirish_time.o
 .debug_loc     0x000068b0       0x1f build//Users/Danny/libmaple/wirish/stm32f1/boards_setup.o
 .debug_loc     0x000068cf      0x131 build//Users/Danny/libmaple/wirish/stm32f1/wirish_digital.o
 .debug_loc     0x00006a00       0x1f build//Users/Danny/libmaple/wirish/boards/maple/board.o
 .debug_loc     0x00006a1f      0x3dd build//Users/Danny/libmaple/libraries/Servo/Servo.o
 .debug_loc     0x00006dfc     0x110b build//Users/Danny/libmaple/libraries/LiquidCrystal/LiquidCrystal.o
 .debug_loc     0x00007f07      0x294 build//Users/Danny/libmaple/libraries/Wire/WireBase.o
 .debug_loc     0x0000819b      0x1cf build//Users/Danny/libmaple/libraries/Wire/HardWire.o
 .debug_loc     0x0000836a      0x546 build//Users/Danny/libmaple/libraries/Wire/Wire.o
 .debug_loc     0x000088b0      0x156 build//Users/Danny/libmaple/libraries/FreeRTOS/utility/croutine.o
 .debug_loc     0x00008a06      0x1d5 build//Users/Danny/libmaple/libraries/FreeRTOS/utility/heap_2.o
 .debug_loc     0x00008bdb       0x63 build//Users/Danny/libmaple/libraries/FreeRTOS/utility/list.o
 .debug_loc     0x00008c3e       0x99 build//Users/Danny/libmaple/libraries/FreeRTOS/utility/port.o
 .debug_loc     0x00008cd7      0x732 build//Users/Danny/libmaple/libraries/FreeRTOS/utility/queue.o
 .debug_loc     0x00009409      0xa32 build//Users/Danny/libmaple/libraries/FreeRTOS/utility/tasks.o
 .debug_loc     0x00009e3b      0x463 build//Users/Danny/Maple_Workbench/SD/libSD/SD.o
 .debug_loc     0x0000a29e      0x25c build//Users/Danny/Maple_Workbench/SD/libFAT/FAT.o
 .debug_loc     0x0000a4fa       0x7c build//Users/Danny/Maple_Workbench/SD/main.o
 .debug_loc     0x0000a576       0x44 /Users/Danny/libmaple/arm/bin/../lib/gcc/arm-none-eabi/4.4.1/../../../../arm-none-eabi/lib/thumb2/libstdc++.a(atexit_arm.o)
 .debug_loc     0x0000a5ba       0x67 /Users/Danny/libmaple/arm/bin/../lib/gcc/arm-none-eabi/4.4.1/thumb2/libgcc.a(_fixdfdi.o)
 .debug_loc     0x0000a621       0x57 /Users/Danny/libmaple/arm/bin/../lib/gcc/arm-none-eabi/4.4.1/thumb2/libgcc.a(_fixunsdfdi.o)
 .debug_loc     0x0000a678      0x11e /Users/Danny/libmaple/arm/bin/../lib/gcc/arm-none-eabi/4.4.1/thumb2/libgcc.a(bpabi.o)
 .debug_loc     0x0000a796      0x7bb /Users/Danny/libmaple/arm/bin/../lib/gcc/arm-none-eabi/4.4.1/thumb2/libgcc.a(_divdi3.o)
 .debug_loc     0x0000af51      0x812 /Users/Danny/libmaple/arm/bin/../lib/gcc/arm-none-eabi/4.4.1/thumb2/libgcc.a(_udivdi3.o)

.debug_macinfo  0x00000000   0x21111e
 *(.debug_macinfo)
 .debug_macinfo
                0x00000000     0x4f41 build//Users/Danny/libmaple/libmaple/adc.o
 .debug_macinfo
                0x00004f41     0x5a66 build//Users/Danny/libmaple/libmaple/dac.o
 .debug_macinfo
                0x0000a9a7     0x5748 build//Users/Danny/libmaple/libmaple/dma.o
 .debug_macinfo
                0x000100ef     0x14cd build//Users/Danny/libmaple/libmaple/exti.o
 .debug_macinfo
                0x000115bc     0x1611 build//Users/Danny/libmaple/libmaple/flash.o
 .debug_macinfo
                0x00012bcd     0x547a build//Users/Danny/libmaple/libmaple/gpio.o
 .debug_macinfo
                0x00018047      0xfe9 build//Users/Danny/libmaple/libmaple/iwdg.o
 .debug_macinfo
                0x00019030     0x1d97 build//Users/Danny/libmaple/libmaple/nvic.o
 .debug_macinfo
                0x0001adc7     0x4262 build//Users/Danny/libmaple/libmaple/pwr.o
 .debug_macinfo
                0x0001f029     0x3a34 build//Users/Danny/libmaple/libmaple/rcc.o
 .debug_macinfo
                0x00022a5d     0x5015 build//Users/Danny/libmaple/libmaple/spi.o
 .debug_macinfo
                0x00027a72     0x11f5 build//Users/Danny/libmaple/libmaple/systick.o
 .debug_macinfo
                0x00028c67     0x757b build//Users/Danny/libmaple/libmaple/timer.o
 .debug_macinfo
                0x000301e2     0x4f2b build//Users/Danny/libmaple/libmaple/usart.o
 .debug_macinfo
                0x0003510d     0x4f4d build//Users/Danny/libmaple/libmaple/usart_private.o
 .debug_macinfo
                0x0003a05a     0x6723 build//Users/Danny/libmaple/libmaple/util.o
 .debug_macinfo
                0x0004077d     0x8043 build//Users/Danny/libmaple/libmaple/i2c.o
 .debug_macinfo
                0x000487c0     0x4e1f build//Users/Danny/libmaple/libmaple/usb/stm32f1/usb.o
 .debug_macinfo
                0x0004d5df     0x1d53 build//Users/Danny/libmaple/libmaple/usb/stm32f1/usb_reg_map.o
 .debug_macinfo
                0x0004f332     0x6e33 build//Users/Danny/libmaple/libmaple/usb/stm32f1/usb_cdcacm.o
 .debug_macinfo
                0x00056165     0x2cde build//Users/Danny/libmaple/libmaple/usb/usb_lib/usb_core.o
 .debug_macinfo
                0x00058e43     0x2b2c build//Users/Danny/libmaple/libmaple/usb/usb_lib/usb_init.o
 .debug_macinfo
                0x0005b96f     0x2b2c build//Users/Danny/libmaple/libmaple/usb/usb_lib/usb_mem.o
 .debug_macinfo
                0x0005e49b     0x2b2c build//Users/Danny/libmaple/libmaple/usb/usb_lib/usb_regs.o
 .debug_macinfo
                0x00060fc7     0x66f0 build//Users/Danny/libmaple/libmaple/stm32f1/adc.o
 .debug_macinfo
                0x000676b7     0x45c3 build//Users/Danny/libmaple/libmaple/stm32f1/bkp.o
 .debug_macinfo
                0x0006bc7a     0x57e6 build//Users/Danny/libmaple/libmaple/stm32f1/dma.o
 .debug_macinfo
                0x00071460     0x549b build//Users/Danny/libmaple/libmaple/stm32f1/exti.o
 .debug_macinfo
                0x000768fb     0x1011 build//Users/Danny/libmaple/libmaple/stm32f1/fsmc.o
 .debug_macinfo
                0x0007790c     0x5494 build//Users/Danny/libmaple/libmaple/stm32f1/gpio.o
 .debug_macinfo
                0x0007cda0     0x6146 build//Users/Danny/libmaple/libmaple/stm32f1/i2c.o
 .debug_macinfo
                0x00082ee6     0x3f86 build//Users/Danny/libmaple/libmaple/stm32f1/rcc.o
 .debug_macinfo
                0x00086e6c     0x67c4 build//Users/Danny/libmaple/libmaple/stm32f1/spi.o
 .debug_macinfo
                0x0008d630     0x757b build//Users/Danny/libmaple/libmaple/stm32f1/timer.o
 .debug_macinfo
                0x00094bab     0x66fc build//Users/Danny/libmaple/libmaple/stm32f1/usart.o
 .debug_macinfo
                0x0009b2a7     0x1067 build//Users/Danny/libmaple/wirish/start_c.o
 .debug_macinfo
                0x0009c30e     0x427f build//Users/Danny/libmaple/wirish/syscalls.o
 .debug_macinfo
                0x000a058d     0xaa15 build//Users/Danny/libmaple/wirish/stm32f1/util_hooks.o
 .debug_macinfo
                0x000aafa2     0xab5f build//Users/Danny/libmaple/wirish/boards.o
 .debug_macinfo
                0x000b5b01      0xd8e build//Users/Danny/libmaple/wirish/cxxabi-compat.o
 .debug_macinfo
                0x000b688f     0xa102 build//Users/Danny/libmaple/wirish/ext_interrupts.o
 .debug_macinfo
                0x000c0991     0xb1cc build//Users/Danny/libmaple/wirish/HardwareSerial.o
 .debug_macinfo
                0x000cbb5d     0x9f1f build//Users/Danny/libmaple/wirish/HardwareTimer.o
 .debug_macinfo
                0x000d5a7c     0x3ba3 build//Users/Danny/libmaple/wirish/Print.o
 .debug_macinfo
                0x000d961f     0xa10e build//Users/Danny/libmaple/wirish/pwm.o
 .debug_macinfo
                0x000e372d    0x105f2 build//Users/Danny/libmaple/wirish/usb_serial.o
 .debug_macinfo
                0x000f3d1f    0x10060 build//Users/Danny/libmaple/wirish/HardwareSPI.o
 .debug_macinfo
                0x00103d7f     0xa10b build//Users/Danny/libmaple/wirish/wirish_analog.o
 .debug_macinfo
                0x0010de8a     0xa34c build//Users/Danny/libmaple/wirish/wirish_digital.o
 .debug_macinfo
                0x001181d6     0x3a27 build//Users/Danny/libmaple/wirish/wirish_math.o
 .debug_macinfo
                0x0011bbfd    0x1005c build//Users/Danny/libmaple/wirish/wirish_shift.o
 .debug_macinfo
                0x0012bc59     0xa308 build//Users/Danny/libmaple/wirish/wirish_time.o
 .debug_macinfo
                0x00135f61     0xa1d4 build//Users/Danny/libmaple/wirish/stm32f1/boards_setup.o
 .debug_macinfo
                0x00140135     0xa10b build//Users/Danny/libmaple/wirish/stm32f1/wirish_digital.o
 .debug_macinfo
                0x0014a240     0x554f build//Users/Danny/libmaple/wirish/stm32f1/wirish_debug.o
 .debug_macinfo
                0x0014f78f     0x9def build//Users/Danny/libmaple/wirish/boards/maple/board.o
 .debug_macinfo
                0x0015957e     0xcd65 build//Users/Danny/libmaple/libraries/Servo/Servo.o
 .debug_macinfo
                0x001662e3    0x1133f build//Users/Danny/libmaple/libraries/LiquidCrystal/LiquidCrystal.o
 .debug_macinfo
                0x00177622    0x10900 build//Users/Danny/libmaple/libraries/Wire/WireBase.o
 .debug_macinfo
                0x00187f22    0x10914 build//Users/Danny/libmaple/libraries/Wire/HardWire.o
 .debug_macinfo
                0x00198836    0x109a5 build//Users/Danny/libmaple/libraries/Wire/Wire.o
 .debug_macinfo
                0x001a91db     0x32de build//Users/Danny/libmaple/libraries/FreeRTOS/utility/croutine.o
 .debug_macinfo
                0x001ac4b9     0x4b4c build//Users/Danny/libmaple/libraries/FreeRTOS/utility/heap_2.o
 .debug_macinfo
                0x001b1005     0x449d build//Users/Danny/libmaple/libraries/FreeRTOS/utility/list.o
 .debug_macinfo
                0x001b54a2     0x2e11 build//Users/Danny/libmaple/libraries/FreeRTOS/utility/port.o
 .debug_macinfo
                0x001b82b3     0x5199 build//Users/Danny/libmaple/libraries/FreeRTOS/utility/queue.o
 .debug_macinfo
                0x001bd44c     0x38cf build//Users/Danny/libmaple/libraries/FreeRTOS/utility/timers.o
 .debug_macinfo
                0x001c0d1b     0x65a9 build//Users/Danny/libmaple/libraries/FreeRTOS/utility/tasks.o
 .debug_macinfo
                0x001c72c4    0x12c64 build//Users/Danny/libmaple/libraries/FreeRTOS/MapleFreeRTOS.o
 .debug_macinfo
                0x001d9f28    0x119c8 build//Users/Danny/Maple_Workbench/SD/libSD/SD.o
 .debug_macinfo
                0x001eb8f0    0x11d20 build//Users/Danny/Maple_Workbench/SD/libFAT/FAT.o
 .debug_macinfo
                0x001fd610    0x12d80 build//Users/Danny/Maple_Workbench/SD/main.o
 .debug_macinfo
                0x00210390      0xd8e build/main.o

.debug_weaknames
 *(.debug_weaknames)

.debug_funcnames
 *(.debug_funcnames)

.debug_typenames
 *(.debug_typenames)

.debug_varnames
 *(.debug_varnames)

.note.gnu.arm.ident
 *(.note.gnu.arm.ident)

.ARM.attributes
                0x00000000       0x25
 *(.ARM.attributes)
 .ARM.attributes
                0x00000000       0x19 /Users/Danny/libmaple/arm/bin/../lib/gcc/arm-none-eabi/4.4.1/thumb2/crti.o
 .ARM.attributes
                0x00000019       0x29 /Users/Danny/libmaple/arm/bin/../lib/gcc/arm-none-eabi/4.4.1/thumb2/crtbegin.o
 .ARM.attributes
                0x00000042       0x31 build//Users/Danny/libmaple/libmaple/adc.o
 .ARM.attributes
                0x00000073       0x31 build//Users/Danny/libmaple/libmaple/dac.o
 .ARM.attributes
                0x000000a4       0x31 build//Users/Danny/libmaple/libmaple/dma.o
 .ARM.attributes
                0x000000d5       0x31 build//Users/Danny/libmaple/libmaple/exti.o
 .ARM.attributes
                0x00000106       0x31 build//Users/Danny/libmaple/libmaple/flash.o
 .ARM.attributes
                0x00000137       0x31 build//Users/Danny/libmaple/libmaple/gpio.o
 .ARM.attributes
                0x00000168       0x31 build//Users/Danny/libmaple/libmaple/iwdg.o
 .ARM.attributes
                0x00000199       0x31 build//Users/Danny/libmaple/libmaple/nvic.o
 .ARM.attributes
                0x000001ca       0x31 build//Users/Danny/libmaple/libmaple/pwr.o
 .ARM.attributes
                0x000001fb       0x31 build//Users/Danny/libmaple/libmaple/rcc.o
 .ARM.attributes
                0x0000022c       0x31 build//Users/Danny/libmaple/libmaple/spi.o
 .ARM.attributes
                0x0000025d       0x31 build//Users/Danny/libmaple/libmaple/systick.o
 .ARM.attributes
                0x0000028e       0x31 build//Users/Danny/libmaple/libmaple/timer.o
 .ARM.attributes
                0x000002bf       0x31 build//Users/Danny/libmaple/libmaple/usart.o
 .ARM.attributes
                0x000002f0       0x31 build//Users/Danny/libmaple/libmaple/usart_private.o
 .ARM.attributes
                0x00000321       0x31 build//Users/Danny/libmaple/libmaple/util.o
 .ARM.attributes
                0x00000352       0x31 build//Users/Danny/libmaple/libmaple/i2c.o
 .ARM.attributes
                0x00000383       0x1b build//Users/Danny/libmaple/libmaple/exc.o
 .ARM.attributes
                0x0000039e       0x31 build//Users/Danny/libmaple/libmaple/usb/stm32f1/usb.o
 .ARM.attributes
                0x000003cf       0x31 build//Users/Danny/libmaple/libmaple/usb/stm32f1/usb_reg_map.o
 .ARM.attributes
                0x00000400       0x31 build//Users/Danny/libmaple/libmaple/usb/stm32f1/usb_cdcacm.o
 .ARM.attributes
                0x00000431       0x31 build//Users/Danny/libmaple/libmaple/usb/usb_lib/usb_core.o
 .ARM.attributes
                0x00000462       0x31 build//Users/Danny/libmaple/libmaple/usb/usb_lib/usb_init.o
 .ARM.attributes
                0x00000493       0x31 build//Users/Danny/libmaple/libmaple/usb/usb_lib/usb_mem.o
 .ARM.attributes
                0x000004c4       0x31 build//Users/Danny/libmaple/libmaple/usb/usb_lib/usb_regs.o
 .ARM.attributes
                0x000004f5       0x1b build//Users/Danny/libmaple/libmaple/stm32f1/performance/isrs.o
 .ARM.attributes
                0x00000510       0x1b build//Users/Danny/libmaple/libmaple/stm32f1/performance/vector_table.o
 .ARM.attributes
                0x0000052b       0x31 build//Users/Danny/libmaple/libmaple/stm32f1/adc.o
 .ARM.attributes
                0x0000055c       0x31 build//Users/Danny/libmaple/libmaple/stm32f1/bkp.o
 .ARM.attributes
                0x0000058d       0x31 build//Users/Danny/libmaple/libmaple/stm32f1/dma.o
 .ARM.attributes
                0x000005be       0x31 build//Users/Danny/libmaple/libmaple/stm32f1/exti.o
 .ARM.attributes
                0x000005ef       0x31 build//Users/Danny/libmaple/libmaple/stm32f1/fsmc.o
 .ARM.attributes
                0x00000620       0x31 build//Users/Danny/libmaple/libmaple/stm32f1/gpio.o
 .ARM.attributes
                0x00000651       0x31 build//Users/Danny/libmaple/libmaple/stm32f1/i2c.o
 .ARM.attributes
                0x00000682       0x31 build//Users/Danny/libmaple/libmaple/stm32f1/rcc.o
 .ARM.attributes
                0x000006b3       0x31 build//Users/Danny/libmaple/libmaple/stm32f1/spi.o
 .ARM.attributes
                0x000006e4       0x31 build//Users/Danny/libmaple/libmaple/stm32f1/timer.o
 .ARM.attributes
                0x00000715       0x31 build//Users/Danny/libmaple/libmaple/stm32f1/usart.o
 .ARM.attributes
                0x00000746       0x1b build//Users/Danny/libmaple/wirish/start.o
 .ARM.attributes
                0x00000761       0x31 build//Users/Danny/libmaple/wirish/start_c.o
 .ARM.attributes
                0x00000792       0x31 build//Users/Danny/libmaple/wirish/syscalls.o
 .ARM.attributes
                0x000007c3       0x31 build//Users/Danny/libmaple/wirish/stm32f1/util_hooks.o
 .ARM.attributes
                0x000007f4       0x31 build//Users/Danny/libmaple/wirish/boards.o
 .ARM.attributes
                0x00000825       0x31 build//Users/Danny/libmaple/wirish/cxxabi-compat.o
 .ARM.attributes
                0x00000856       0x31 build//Users/Danny/libmaple/wirish/ext_interrupts.o
 .ARM.attributes
                0x00000887       0x31 build//Users/Danny/libmaple/wirish/HardwareSerial.o
 .ARM.attributes
                0x000008b8       0x31 build//Users/Danny/libmaple/wirish/HardwareTimer.o
 .ARM.attributes
                0x000008e9       0x31 build//Users/Danny/libmaple/wirish/Print.o
 .ARM.attributes
                0x0000091a       0x31 build//Users/Danny/libmaple/wirish/pwm.o
 .ARM.attributes
                0x0000094b       0x31 build//Users/Danny/libmaple/wirish/usb_serial.o
 .ARM.attributes
                0x0000097c       0x31 build//Users/Danny/libmaple/wirish/HardwareSPI.o
 .ARM.attributes
                0x000009ad       0x31 build//Users/Danny/libmaple/wirish/wirish_analog.o
 .ARM.attributes
                0x000009de       0x31 build//Users/Danny/libmaple/wirish/wirish_digital.o
 .ARM.attributes
                0x00000a0f       0x31 build//Users/Danny/libmaple/wirish/wirish_math.o
 .ARM.attributes
                0x00000a40       0x31 build//Users/Danny/libmaple/wirish/wirish_shift.o
 .ARM.attributes
                0x00000a71       0x31 build//Users/Danny/libmaple/wirish/wirish_time.o
 .ARM.attributes
                0x00000aa2       0x31 build//Users/Danny/libmaple/wirish/stm32f1/boards_setup.o
 .ARM.attributes
                0x00000ad3       0x31 build//Users/Danny/libmaple/wirish/stm32f1/wirish_digital.o
 .ARM.attributes
                0x00000b04       0x31 build//Users/Danny/libmaple/wirish/stm32f1/wirish_debug.o
 .ARM.attributes
                0x00000b35       0x31 build//Users/Danny/libmaple/wirish/boards/maple/board.o
 .ARM.attributes
                0x00000b66       0x31 build//Users/Danny/libmaple/libraries/Servo/Servo.o
 .ARM.attributes
                0x00000b97       0x31 build//Users/Danny/libmaple/libraries/LiquidCrystal/LiquidCrystal.o
 .ARM.attributes
                0x00000bc8       0x31 build//Users/Danny/libmaple/libraries/Wire/WireBase.o
 .ARM.attributes
                0x00000bf9       0x31 build//Users/Danny/libmaple/libraries/Wire/HardWire.o
 .ARM.attributes
                0x00000c2a       0x31 build//Users/Danny/libmaple/libraries/Wire/Wire.o
 .ARM.attributes
                0x00000c5b       0x31 build//Users/Danny/libmaple/libraries/FreeRTOS/utility/croutine.o
 .ARM.attributes
                0x00000c8c       0x31 build//Users/Danny/libmaple/libraries/FreeRTOS/utility/heap_2.o
 .ARM.attributes
                0x00000cbd       0x31 build//Users/Danny/libmaple/libraries/FreeRTOS/utility/list.o
 .ARM.attributes
                0x00000cee       0x31 build//Users/Danny/libmaple/libraries/FreeRTOS/utility/port.o
 .ARM.attributes
                0x00000d1f       0x31 build//Users/Danny/libmaple/libraries/FreeRTOS/utility/queue.o
 .ARM.attributes
                0x00000d50       0x31 build//Users/Danny/libmaple/libraries/FreeRTOS/utility/timers.o
 .ARM.attributes
                0x00000d81       0x31 build//Users/Danny/libmaple/libraries/FreeRTOS/utility/tasks.o
 .ARM.attributes
                0x00000db2       0x31 build//Users/Danny/libmaple/libraries/FreeRTOS/MapleFreeRTOS.o
 .ARM.attributes
                0x00000de3       0x31 build//Users/Danny/Maple_Workbench/SD/libSD/SD.o
 .ARM.attributes
                0x00000e14       0x31 build//Users/Danny/Maple_Workbench/SD/libFAT/FAT.o
 .ARM.attributes
                0x00000e45       0x31 build//Users/Danny/Maple_Workbench/SD/main.o
 .ARM.attributes
                0x00000e76       0x31 build/main.o
 .ARM.attributes
                0x00000ea7       0x29 /Users/Danny/libmaple/arm/bin/../lib/gcc/arm-none-eabi/4.4.1/../../../../arm-none-eabi/lib/thumb2/libstdc++.a(atexit_arm.o)
 .ARM.attributes
                0x00000ed0       0x1b /Users/Danny/libmaple/arm/bin/../lib/gcc/arm-none-eabi/4.4.1/thumb2/libgcc.a(_arm_addsubdf3.o)
 .ARM.attributes
                0x00000eeb       0x1b /Users/Danny/libmaple/arm/bin/../lib/gcc/arm-none-eabi/4.4.1/thumb2/libgcc.a(_arm_muldivdf3.o)
 .ARM.attributes
                0x00000f06       0x1b /Users/Danny/libmaple/arm/bin/../lib/gcc/arm-none-eabi/4.4.1/thumb2/libgcc.a(_arm_cmpdf2.o)
 .ARM.attributes
                0x00000f21       0x1b /Users/Danny/libmaple/arm/bin/../lib/gcc/arm-none-eabi/4.4.1/thumb2/libgcc.a(_arm_fixdfsi.o)
 .ARM.attributes
                0x00000f3c       0x1b /Users/Danny/libmaple/arm/bin/../lib/gcc/arm-none-eabi/4.4.1/thumb2/libgcc.a(_aeabi_uldivmod.o)
 .ARM.attributes
                0x00000f57       0x29 /Users/Danny/libmaple/arm/bin/../lib/gcc/arm-none-eabi/4.4.1/thumb2/libgcc.a(_fixdfdi.o)
 .ARM.attributes
                0x00000f80       0x29 /Users/Danny/libmaple/arm/bin/../lib/gcc/arm-none-eabi/4.4.1/thumb2/libgcc.a(_fixunsdfdi.o)
 .ARM.attributes
                0x00000fa9       0x29 /Users/Danny/libmaple/arm/bin/../lib/gcc/arm-none-eabi/4.4.1/thumb2/libgcc.a(bpabi.o)
 .ARM.attributes
                0x00000fd2       0x1b /Users/Danny/libmaple/arm/bin/../lib/gcc/arm-none-eabi/4.4.1/thumb2/libgcc.a(_dvmd_tls.o)
 .ARM.attributes
                0x00000fed       0x1b /Users/Danny/libmaple/arm/bin/../lib/gcc/arm-none-eabi/4.4.1/thumb2/libgcc.a(_arm_fixunsdfsi.o)
 .ARM.attributes
                0x00001008       0x29 /Users/Danny/libmaple/arm/bin/../lib/gcc/arm-none-eabi/4.4.1/thumb2/libgcc.a(_divdi3.o)
 .ARM.attributes
                0x00001031       0x29 /Users/Danny/libmaple/arm/bin/../lib/gcc/arm-none-eabi/4.4.1/thumb2/libgcc.a(_udivdi3.o)
 .ARM.attributes
                0x0000105a       0x1b /Users/Danny/libmaple/arm/bin/../lib/gcc/arm-none-eabi/4.4.1/thumb2/libgcc.a(_udivsi3.o)
 .ARM.attributes
                0x00001075       0x29 /Users/Danny/libmaple/arm/bin/../lib/gcc/arm-none-eabi/4.4.1/../../../../arm-none-eabi/lib/thumb2/libc.a(lib_a-cxa_atexit.o)
 .ARM.attributes
                0x0000109e       0x29 /Users/Danny/libmaple/arm/bin/../lib/gcc/arm-none-eabi/4.4.1/../../../../arm-none-eabi/lib/thumb2/libc.a(lib_a-errno.o)
 .ARM.attributes
                0x000010c7       0x29 /Users/Danny/libmaple/arm/bin/../lib/gcc/arm-none-eabi/4.4.1/../../../../arm-none-eabi/lib/thumb2/libc.a(lib_a-impure.o)
 .ARM.attributes
                0x000010f0       0x29 /Users/Danny/libmaple/arm/bin/../lib/gcc/arm-none-eabi/4.4.1/../../../../arm-none-eabi/lib/thumb2/libc.a(lib_a-init.o)
 .ARM.attributes
                0x00001119       0x29 /Users/Danny/libmaple/arm/bin/../lib/gcc/arm-none-eabi/4.4.1/../../../../arm-none-eabi/lib/thumb2/libc.a(lib_a-malloc.o)
 .ARM.attributes
                0x00001142       0x29 /Users/Danny/libmaple/arm/bin/../lib/gcc/arm-none-eabi/4.4.1/../../../../arm-none-eabi/lib/thumb2/libc.a(lib_a-mallocr.o)
 .ARM.attributes
                0x0000116b       0x29 /Users/Danny/libmaple/arm/bin/../lib/gcc/arm-none-eabi/4.4.1/../../../../arm-none-eabi/lib/thumb2/libc.a(lib_a-memcmp.o)
 .ARM.attributes
                0x00001194       0x29 /Users/Danny/libmaple/arm/bin/../lib/gcc/arm-none-eabi/4.4.1/../../../../arm-none-eabi/lib/thumb2/libc.a(lib_a-memcpy.o)
 .ARM.attributes
                0x000011bd       0x29 /Users/Danny/libmaple/arm/bin/../lib/gcc/arm-none-eabi/4.4.1/../../../../arm-none-eabi/lib/thumb2/libc.a(lib_a-memset.o)
 .ARM.attributes
                0x000011e6       0x29 /Users/Danny/libmaple/arm/bin/../lib/gcc/arm-none-eabi/4.4.1/../../../../arm-none-eabi/lib/thumb2/libc.a(lib_a-mlock.o)
 .ARM.attributes
                0x0000120f       0x29 /Users/Danny/libmaple/arm/bin/../lib/gcc/arm-none-eabi/4.4.1/../../../../arm-none-eabi/lib/thumb2/libc.a(lib_a-rand.o)
 .ARM.attributes
                0x00001238       0x29 /Users/Danny/libmaple/arm/bin/../lib/gcc/arm-none-eabi/4.4.1/../../../../arm-none-eabi/lib/thumb2/libc.a(lib_a-sbrkr.o)
 .ARM.attributes
                0x00001261       0x29 /Users/Danny/libmaple/arm/bin/../lib/gcc/arm-none-eabi/4.4.1/../../../../arm-none-eabi/lib/thumb2/libc.a(lib_a-sprintf.o)
 .ARM.attributes
                0x0000128a       0x29 /Users/Danny/libmaple/arm/bin/../lib/gcc/arm-none-eabi/4.4.1/../../../../arm-none-eabi/lib/thumb2/libc.a(lib_a-strcat.o)
 .ARM.attributes
                0x000012b3       0x29 /Users/Danny/libmaple/arm/bin/../lib/gcc/arm-none-eabi/4.4.1/../../../../arm-none-eabi/lib/thumb2/libc.a(lib_a-strlen.o)
 .ARM.attributes
                0x000012dc       0x29 /Users/Danny/libmaple/arm/bin/../lib/gcc/arm-none-eabi/4.4.1/../../../../arm-none-eabi/lib/thumb2/libc.a(lib_a-strncpy.o)
 .ARM.attributes
                0x00001305       0x29 /Users/Danny/libmaple/arm/bin/../lib/gcc/arm-none-eabi/4.4.1/../../../../arm-none-eabi/lib/thumb2/libc.a(lib_a-svfprintf.o)
 .ARM.attributes
                0x0000132e       0x29 /Users/Danny/libmaple/arm/bin/../lib/gcc/arm-none-eabi/4.4.1/../../../../arm-none-eabi/lib/thumb2/libc.a(lib_a-__atexit.o)
 .ARM.attributes
                0x00001357       0x29 /Users/Danny/libmaple/arm/bin/../lib/gcc/arm-none-eabi/4.4.1/../../../../arm-none-eabi/lib/thumb2/libc.a(lib_a-dtoa.o)
 .ARM.attributes
                0x00001380       0x29 /Users/Danny/libmaple/arm/bin/../lib/gcc/arm-none-eabi/4.4.1/../../../../arm-none-eabi/lib/thumb2/libc.a(lib_a-freer.o)
 .ARM.attributes
                0x000013a9       0x29 /Users/Danny/libmaple/arm/bin/../lib/gcc/arm-none-eabi/4.4.1/../../../../arm-none-eabi/lib/thumb2/libc.a(lib_a-locale.o)
 .ARM.attributes
                0x000013d2       0x29 /Users/Danny/libmaple/arm/bin/../lib/gcc/arm-none-eabi/4.4.1/../../../../arm-none-eabi/lib/thumb2/libc.a(lib_a-memchr.o)
 .ARM.attributes
                0x000013fb       0x29 /Users/Danny/libmaple/arm/bin/../lib/gcc/arm-none-eabi/4.4.1/../../../../arm-none-eabi/lib/thumb2/libc.a(lib_a-memmove.o)
 .ARM.attributes
                0x00001424       0x29 /Users/Danny/libmaple/arm/bin/../lib/gcc/arm-none-eabi/4.4.1/../../../../arm-none-eabi/lib/thumb2/libc.a(lib_a-mprec.o)
 .ARM.attributes
                0x0000144d       0x29 /Users/Danny/libmaple/arm/bin/../lib/gcc/arm-none-eabi/4.4.1/../../../../arm-none-eabi/lib/thumb2/libc.a(lib_a-reallocr.o)
 .ARM.attributes
                0x00001476       0x29 /Users/Danny/libmaple/arm/bin/../lib/gcc/arm-none-eabi/4.4.1/../../../../arm-none-eabi/lib/thumb2/libc.a(lib_a-reent.o)
 .ARM.attributes
                0x0000149f       0x29 /Users/Danny/libmaple/arm/bin/../lib/gcc/arm-none-eabi/4.4.1/../../../../arm-none-eabi/lib/thumb2/libc.a(lib_a-s_isinfd.o)
 .ARM.attributes
                0x000014c8       0x29 /Users/Danny/libmaple/arm/bin/../lib/gcc/arm-none-eabi/4.4.1/../../../../arm-none-eabi/lib/thumb2/libc.a(lib_a-s_isnand.o)
 .ARM.attributes
                0x000014f1       0x29 /Users/Danny/libmaple/arm/bin/../lib/gcc/arm-none-eabi/4.4.1/../../../../arm-none-eabi/lib/thumb2/libc.a(lib_a-strcmp.o)
 .ARM.attributes
                0x0000151a       0x29 /Users/Danny/libmaple/arm/bin/../lib/gcc/arm-none-eabi/4.4.1/../../../../arm-none-eabi/lib/thumb2/libc.a(lib_a-callocr.o)
 .ARM.attributes
                0x00001543       0x1b /Users/Danny/libmaple/arm/bin/../lib/gcc/arm-none-eabi/4.4.1/thumb2/libgcc.a(_divsi3.o)
 .ARM.attributes
                0x0000155e       0x29 /Users/Danny/libmaple/arm/bin/../lib/gcc/arm-none-eabi/4.4.1/thumb2/crtend.o
 .ARM.attributes
                0x00001587       0x19 /Users/Danny/libmaple/arm/bin/../lib/gcc/arm-none-eabi/4.4.1/thumb2/crtn.o

/DISCARD/
 *(.note.GNU-stack)
LOAD build//Users/Danny/libmaple/libmaple/adc.o
LOAD build//Users/Danny/libmaple/libmaple/dac.o
LOAD build//Users/Danny/libmaple/libmaple/dma.o
LOAD build//Users/Danny/libmaple/libmaple/exti.o
LOAD build//Users/Danny/libmaple/libmaple/flash.o
LOAD build//Users/Danny/libmaple/libmaple/gpio.o
LOAD build//Users/Danny/libmaple/libmaple/iwdg.o
LOAD build//Users/Danny/libmaple/libmaple/nvic.o
LOAD build//Users/Danny/libmaple/libmaple/pwr.o
LOAD build//Users/Danny/libmaple/libmaple/rcc.o
LOAD build//Users/Danny/libmaple/libmaple/spi.o
LOAD build//Users/Danny/libmaple/libmaple/systick.o
LOAD build//Users/Danny/libmaple/libmaple/timer.o
LOAD build//Users/Danny/libmaple/libmaple/usart.o
LOAD build//Users/Danny/libmaple/libmaple/usart_private.o
LOAD build//Users/Danny/libmaple/libmaple/util.o
LOAD build//Users/Danny/libmaple/libmaple/i2c.o
LOAD build//Users/Danny/libmaple/libmaple/exc.o
LOAD build//Users/Danny/libmaple/libmaple/usb/stm32f1/usb.o
LOAD build//Users/Danny/libmaple/libmaple/usb/stm32f1/usb_reg_map.o
LOAD build//Users/Danny/libmaple/libmaple/usb/stm32f1/usb_cdcacm.o
LOAD build//Users/Danny/libmaple/libmaple/usb/usb_lib/usb_core.o
LOAD build//Users/Danny/libmaple/libmaple/usb/usb_lib/usb_init.o
LOAD build//Users/Danny/libmaple/libmaple/usb/usb_lib/usb_mem.o
LOAD build//Users/Danny/libmaple/libmaple/usb/usb_lib/usb_regs.o
LOAD build//Users/Danny/libmaple/libmaple/stm32f1/performance/isrs.o
LOAD build//Users/Danny/libmaple/libmaple/stm32f1/performance/vector_table.o
LOAD build//Users/Danny/libmaple/libmaple/stm32f1/adc.o
LOAD build//Users/Danny/libmaple/libmaple/stm32f1/bkp.o
LOAD build//Users/Danny/libmaple/libmaple/stm32f1/dma.o
LOAD build//Users/Danny/libmaple/libmaple/stm32f1/exti.o
LOAD build//Users/Danny/libmaple/libmaple/stm32f1/fsmc.o
LOAD build//Users/Danny/libmaple/libmaple/stm32f1/gpio.o
LOAD build//Users/Danny/libmaple/libmaple/stm32f1/i2c.o
LOAD build//Users/Danny/libmaple/libmaple/stm32f1/rcc.o
LOAD build//Users/Danny/libmaple/libmaple/stm32f1/spi.o
LOAD build//Users/Danny/libmaple/libmaple/stm32f1/timer.o
LOAD build//Users/Danny/libmaple/libmaple/stm32f1/usart.o
LOAD build//Users/Danny/libmaple/wirish/start.o
LOAD build//Users/Danny/libmaple/wirish/start_c.o
LOAD build//Users/Danny/libmaple/wirish/syscalls.o
LOAD build//Users/Danny/libmaple/wirish/stm32f1/util_hooks.o
LOAD build//Users/Danny/libmaple/wirish/boards.o
LOAD build//Users/Danny/libmaple/wirish/cxxabi-compat.o
LOAD build//Users/Danny/libmaple/wirish/ext_interrupts.o
LOAD build//Users/Danny/libmaple/wirish/HardwareSerial.o
LOAD build//Users/Danny/libmaple/wirish/HardwareTimer.o
LOAD build//Users/Danny/libmaple/wirish/Print.o
LOAD build//Users/Danny/libmaple/wirish/pwm.o
LOAD build//Users/Danny/libmaple/wirish/usb_serial.o
LOAD build//Users/Danny/libmaple/wirish/HardwareSPI.o
LOAD build//Users/Danny/libmaple/wirish/wirish_analog.o
LOAD build//Users/Danny/libmaple/wirish/wirish_digital.o
LOAD build//Users/Danny/libmaple/wirish/wirish_math.o
LOAD build//Users/Danny/libmaple/wirish/wirish_shift.o
LOAD build//Users/Danny/libmaple/wirish/wirish_time.o
LOAD build//Users/Danny/libmaple/wirish/stm32f1/boards_setup.o
LOAD build//Users/Danny/libmaple/wirish/stm32f1/wirish_digital.o
LOAD build//Users/Danny/libmaple/wirish/stm32f1/wirish_debug.o
LOAD build//Users/Danny/libmaple/wirish/boards/maple/board.o
LOAD build//Users/Danny/libmaple/libraries/Servo/Servo.o
LOAD build//Users/Danny/libmaple/libraries/LiquidCrystal/LiquidCrystal.o
LOAD build//Users/Danny/libmaple/libraries/Wire/WireBase.o
LOAD build//Users/Danny/libmaple/libraries/Wire/HardWire.o
LOAD build//Users/Danny/libmaple/libraries/Wire/Wire.o
LOAD build//Users/Danny/libmaple/libraries/FreeRTOS/utility/croutine.o
LOAD build//Users/Danny/libmaple/libraries/FreeRTOS/utility/heap_2.o
LOAD build//Users/Danny/libmaple/libraries/FreeRTOS/utility/list.o
LOAD build//Users/Danny/libmaple/libraries/FreeRTOS/utility/port.o
LOAD build//Users/Danny/libmaple/libraries/FreeRTOS/utility/queue.o
LOAD build//Users/Danny/libmaple/libraries/FreeRTOS/utility/timers.o
LOAD build//Users/Danny/libmaple/libraries/FreeRTOS/utility/tasks.o
LOAD build//Users/Danny/libmaple/libraries/FreeRTOS/MapleFreeRTOS.o
LOAD build//Users/Danny/Maple_Workbench/SD/libSD/SD.o
LOAD build//Users/Danny/Maple_Workbench/SD/libFAT/FAT.o
LOAD build//Users/Danny/Maple_Workbench/SD/main.o
LOAD build/main.o
LOAD /Users/Danny/libmaple/arm/bin/../lib/gcc/arm-none-eabi/4.4.1/../../../../arm-none-eabi/lib/thumb2/libstdc++.a
LOAD /Users/Danny/libmaple/arm/bin/../lib/gcc/arm-none-eabi/4.4.1/../../../../arm-none-eabi/lib/thumb2/libm.a
START GROUP
LOAD /Users/Danny/libmaple/arm/bin/../lib/gcc/arm-none-eabi/4.4.1/thumb2/libgcc.a
LOAD /Users/Danny/libmaple/arm/bin/../lib/gcc/arm-none-eabi/4.4.1/../../../../arm-none-eabi/lib/thumb2/libc.a
END GROUP
LOAD /Users/Danny/libmaple/arm/bin/../lib/gcc/arm-none-eabi/4.4.1/thumb2/crtend.o
LOAD /Users/Danny/libmaple/arm/bin/../lib/gcc/arm-none-eabi/4.4.1/thumb2/crtn.o
OUTPUT(build/maple.elf elf32-littlearm)

.debug_ranges   0x00000000     0x2790
 .debug_ranges  0x00000000       0x20 /Users/Danny/libmaple/arm/bin/../lib/gcc/arm-none-eabi/4.4.1/thumb2/crti.o
 .debug_ranges  0x00000020       0x30 build//Users/Danny/libmaple/libmaple/adc.o
 .debug_ranges  0x00000050       0x30 build//Users/Danny/libmaple/libmaple/dac.o
 .debug_ranges  0x00000080       0x20 build//Users/Danny/libmaple/libmaple/dma.o
 .debug_ranges  0x000000a0       0x68 build//Users/Danny/libmaple/libmaple/exti.o
 .debug_ranges  0x00000108       0x18 build//Users/Danny/libmaple/libmaple/flash.o
 .debug_ranges  0x00000120       0x18 build//Users/Danny/libmaple/libmaple/gpio.o
 .debug_ranges  0x00000138       0x20 build//Users/Danny/libmaple/libmaple/iwdg.o
 .debug_ranges  0x00000158       0x30 build//Users/Danny/libmaple/libmaple/nvic.o
 .debug_ranges  0x00000188       0x18 build//Users/Danny/libmaple/libmaple/pwr.o
 .debug_ranges  0x000001a0       0x50 build//Users/Danny/libmaple/libmaple/rcc.o
 .debug_ranges  0x000001f0       0xc8 build//Users/Danny/libmaple/libmaple/spi.o
 .debug_ranges  0x000002b8       0x38 build//Users/Danny/libmaple/libmaple/systick.o
 .debug_ranges  0x000002f0      0x100 build//Users/Danny/libmaple/libmaple/timer.o
 .debug_ranges  0x000003f0       0x40 build//Users/Danny/libmaple/libmaple/usart.o
 .debug_ranges  0x00000430       0x18 build//Users/Danny/libmaple/libmaple/usart_private.o
 .debug_ranges  0x00000448       0x50 build//Users/Danny/libmaple/libmaple/util.o
 .debug_ranges  0x00000498      0x160 build//Users/Danny/libmaple/libmaple/i2c.o
 .debug_ranges  0x000005f8       0xd8 build//Users/Danny/libmaple/libmaple/usb/stm32f1/usb.o
 .debug_ranges  0x000006d0       0x70 build//Users/Danny/libmaple/libmaple/usb/stm32f1/usb_reg_map.o
 .debug_ranges  0x00000740      0x170 build//Users/Danny/libmaple/libmaple/usb/stm32f1/usb_cdcacm.o
 .debug_ranges  0x000008b0       0xb0 build//Users/Danny/libmaple/libmaple/usb/usb_lib/usb_core.o
 .debug_ranges  0x00000960       0x18 build//Users/Danny/libmaple/libmaple/usb/usb_lib/usb_init.o
 .debug_ranges  0x00000978       0x20 build//Users/Danny/libmaple/libmaple/usb/usb_lib/usb_mem.o
 .debug_ranges  0x00000998      0x218 build//Users/Danny/libmaple/libmaple/usb/usb_lib/usb_regs.o
 .debug_ranges  0x00000bb0       0x40 build//Users/Danny/libmaple/libmaple/stm32f1/adc.o
 .debug_ranges  0x00000bf0       0x48 build//Users/Danny/libmaple/libmaple/stm32f1/bkp.o
 .debug_ranges  0x00000c38      0x278 build//Users/Danny/libmaple/libmaple/stm32f1/dma.o
 .debug_ranges  0x00000eb0       0x18 build//Users/Danny/libmaple/libmaple/stm32f1/exti.o
 .debug_ranges  0x00000ec8       0x30 build//Users/Danny/libmaple/libmaple/stm32f1/gpio.o
 .debug_ranges  0x00000ef8       0x80 build//Users/Danny/libmaple/libmaple/stm32f1/i2c.o
 .debug_ranges  0x00000f78       0xd0 build//Users/Danny/libmaple/libmaple/stm32f1/rcc.o
 .debug_ranges  0x00001048       0x20 build//Users/Danny/libmaple/libmaple/stm32f1/spi.o
 .debug_ranges  0x00001068       0x48 build//Users/Danny/libmaple/libmaple/stm32f1/timer.o
 .debug_ranges  0x000010b0       0x90 build//Users/Danny/libmaple/libmaple/stm32f1/usart.o
 .debug_ranges  0x00001140       0x18 build//Users/Danny/libmaple/wirish/start_c.o
 .debug_ranges  0x00001158       0x78 build//Users/Danny/libmaple/wirish/syscalls.o
 .debug_ranges  0x000011d0       0x48 build//Users/Danny/libmaple/wirish/stm32f1/util_hooks.o
 .debug_ranges  0x00001218       0xe8 build//Users/Danny/libmaple/wirish/boards.o
 .debug_ranges  0x00001300       0x18 build//Users/Danny/libmaple/wirish/cxxabi-compat.o
 .debug_ranges  0x00001318       0x40 build//Users/Danny/libmaple/wirish/ext_interrupts.o
 .debug_ranges  0x00001358       0xd0 build//Users/Danny/libmaple/wirish/HardwareSerial.o
 .debug_ranges  0x00001428      0x1a0 build//Users/Danny/libmaple/wirish/HardwareTimer.o
 .debug_ranges  0x000015c8      0x128 build//Users/Danny/libmaple/wirish/Print.o
 .debug_ranges  0x000016f0       0x30 build//Users/Danny/libmaple/wirish/pwm.o
 .debug_ranges  0x00001720       0xf0 build//Users/Danny/libmaple/wirish/usb_serial.o
 .debug_ranges  0x00001810      0x170 build//Users/Danny/libmaple/wirish/HardwareSPI.o
 .debug_ranges  0x00001980       0x38 build//Users/Danny/libmaple/wirish/wirish_analog.o
 .debug_ranges  0x000019b8       0x68 build//Users/Danny/libmaple/wirish/wirish_digital.o
 .debug_ranges  0x00001a20       0x40 build//Users/Danny/libmaple/wirish/wirish_math.o
 .debug_ranges  0x00001a60       0x30 build//Users/Danny/libmaple/wirish/wirish_shift.o
 .debug_ranges  0x00001a90       0x20 build//Users/Danny/libmaple/wirish/wirish_time.o
 .debug_ranges  0x00001ab0       0x38 build//Users/Danny/libmaple/wirish/stm32f1/boards_setup.o
 .debug_ranges  0x00001ae8       0x40 build//Users/Danny/libmaple/wirish/stm32f1/wirish_digital.o
 .debug_ranges  0x00001b28       0x28 build//Users/Danny/libmaple/wirish/stm32f1/wirish_debug.o
 .debug_ranges  0x00001b50       0x48 build//Users/Danny/libmaple/wirish/boards/maple/board.o
 .debug_ranges  0x00001b98       0xc0 build//Users/Danny/libmaple/libraries/Servo/Servo.o
 .debug_ranges  0x00001c58      0x158 build//Users/Danny/libmaple/libraries/LiquidCrystal/LiquidCrystal.o
 .debug_ranges  0x00001db0       0x90 build//Users/Danny/libmaple/libraries/Wire/WireBase.o
 .debug_ranges  0x00001e40       0x50 build//Users/Danny/libmaple/libraries/Wire/HardWire.o
 .debug_ranges  0x00001e90       0xe0 build//Users/Danny/libmaple/libraries/Wire/Wire.o
 .debug_ranges  0x00001f70       0x78 build//Users/Danny/libmaple/libraries/FreeRTOS/utility/croutine.o
 .debug_ranges  0x00001fe8       0x48 build//Users/Danny/libmaple/libraries/FreeRTOS/utility/heap_2.o
 .debug_ranges  0x00002030       0x38 build//Users/Danny/libmaple/libraries/FreeRTOS/utility/list.o
 .debug_ranges  0x00002068       0x60 build//Users/Danny/libmaple/libraries/FreeRTOS/utility/port.o
 .debug_ranges  0x000020c8       0x98 build//Users/Danny/libmaple/libraries/FreeRTOS/utility/queue.o
 .debug_ranges  0x00002160      0x1e0 build//Users/Danny/libmaple/libraries/FreeRTOS/utility/tasks.o
 .debug_ranges  0x00002340       0x18 build//Users/Danny/libmaple/libraries/FreeRTOS/MapleFreeRTOS.o
 .debug_ranges  0x00002358      0x108 build//Users/Danny/Maple_Workbench/SD/libSD/SD.o
 .debug_ranges  0x00002460       0xe8 build//Users/Danny/Maple_Workbench/SD/libFAT/FAT.o
 .debug_ranges  0x00002548       0x78 build//Users/Danny/Maple_Workbench/SD/main.o
 .debug_ranges  0x000025c0       0x18 /Users/Danny/libmaple/arm/bin/../lib/gcc/arm-none-eabi/4.4.1/../../../../arm-none-eabi/lib/thumb2/libstdc++.a(atexit_arm.o)
 .debug_ranges  0x000025d8       0xd0 /Users/Danny/libmaple/arm/bin/../lib/gcc/arm-none-eabi/4.4.1/thumb2/libgcc.a(_divdi3.o)
 .debug_ranges  0x000026a8       0xc8 /Users/Danny/libmaple/arm/bin/../lib/gcc/arm-none-eabi/4.4.1/thumb2/libgcc.a(_udivdi3.o)
 .debug_ranges  0x00002770       0x20 /Users/Danny/libmaple/arm/bin/../lib/gcc/arm-none-eabi/4.4.1/thumb2/crtn.o
